

Microchip MPLAB XC8 Assembler V2.10 build 88905656 
                                                                                               Fri Feb 14 16:04:15 2020

Microchip MPLAB XC8 C Compiler v2.10 (Free license) build 20190730164152 Og1 
     1                           	processor	16F887
     2                           	opt	pw 120
     3                           	opt	flic
     4                           	psect	strings,global,class=STRING,delta=2
     5                           	psect	cinit,global,class=CODE,merge=1,delta=2
     6                           	psect	bssBANK0,global,class=BANK0,space=1,delta=1
     7                           	psect	bssBANK1,global,class=BANK1,space=1,delta=1
     8                           	psect	clrtext,global,class=CODE,delta=2
     9                           	psect	cstackCOMMON,global,class=COMMON,space=1,delta=1
    10                           	psect	cstackBANK0,global,class=BANK0,space=1,delta=1
    11                           	psect	maintext,global,class=CODE,split=1,delta=2
    12                           	psect	text1,local,class=CODE,merge=1,delta=2
    13                           	psect	text2,local,class=CODE,merge=1,delta=2
    14                           	psect	text3,local,class=CODE,merge=1,delta=2,group=2
    15                           	psect	text4,local,class=CODE,merge=1,delta=2,group=2
    16                           	psect	text5,local,class=CODE,merge=1,delta=2
    17                           	psect	text6,local,class=CODE,merge=1,delta=2
    18                           	psect	text7,local,class=CODE,merge=1,delta=2
    19                           	psect	text8,local,class=CODE,merge=1,delta=2
    20                           	psect	text9,local,class=CODE,merge=1,delta=2
    21                           	psect	text10,local,class=CODE,merge=1,delta=2,group=2
    22                           	psect	text11,local,class=CODE,merge=1,delta=2,group=2
    23                           	psect	text12,local,class=CODE,merge=1,delta=2,group=1
    24                           	psect	text13,local,class=CODE,merge=1,delta=2,group=1
    25                           	psect	text14,local,class=CODE,merge=1,delta=2,group=1
    26                           	psect	text15,local,class=CODE,merge=1,delta=2,group=1
    27                           	psect	text16,local,class=CODE,merge=1,delta=2,group=1
    28                           	psect	text17,local,class=CODE,merge=1,delta=2,group=1
    29                           	psect	text18,local,class=CODE,merge=1,delta=2,group=1
    30                           	psect	text19,local,class=CODE,merge=1,delta=2,group=1
    31                           	psect	text20,local,class=CODE,merge=1,delta=2,group=1
    32                           	dabs	1,0x7E,2
    33  0000                     
    34                           ; Version 2.10
    35                           ; Generated 31/07/2019 GMT
    36                           ; 
    37                           ; Copyright © 2019, Microchip Technology Inc. and its subsidiaries ("Microchip")
    38                           ; All rights reserved.
    39                           ; 
    40                           ; This software is developed by Microchip Technology Inc. and its subsidiaries ("Microch
      +                          ip").
    41                           ; 
    42                           ; Redistribution and use in source and binary forms, with or without modification, are
    43                           ; permitted provided that the following conditions are met:
    44                           ; 
    45                           ;     1. Redistributions of source code must retain the above copyright notice, this lis
      +                          t of
    46                           ;        conditions and the following disclaimer.
    47                           ; 
    48                           ;     2. Redistributions in binary form must reproduce the above copyright notice, this 
      +                          list
    49                           ;        of conditions and the following disclaimer in the documentation and/or other
    50                           ;        materials provided with the distribution.
    51                           ; 
    52                           ;     3. Microchip's name may not be used to endorse or promote products derived from th
      +                          is
    53                           ;        software without specific prior written permission.
    54                           ; 
    55                           ; THIS SOFTWARE IS PROVIDED BY MICROCHIP "AS IS" AND ANY EXPRESS OR IMPLIED WARRANTIES,
    56                           ; INCLUDING, BUT NOT LIMITED TO, THE IMPLIED WARRANTIES OF MERCHANTABILITY AND FITNESS F
      +                          OR
    57                           ; PURPOSE ARE DISCLAIMED.  IN NO EVENT SHALL MICROCHIP BE LIABLE FOR ANY DIRECT, INDIREC
      +                          T,
    58                           ; INCIDENTAL, SPECIAL, EXEMPLARY, OR CONSEQUENTIAL DAMAGES (INCLUDING BUT NOT LIMITED TO
    59                           ; PROCUREMENT OF SUBSTITUTE GOODS OR SERVICES; LOSS OF USE, DATA OR PROFITS; OR BUSINESS
    60                           ; INTERRUPTION) HOWSOEVER CAUSED AND ON ANY THEORY OF LIABILITY, WHETHER IN CONTRACT, ST
      +                          RICT
    61                           ; LIABILITY, OR TORT (INCLUDING NEGLIGENCE OR OTHERWISE) ARISING IN ANY WAY OUT OF THE U
      +                          SE OF
    62                           ; THIS SOFTWARE, EVEN IF ADVISED OF THE POSSIBILITY OF SUCH DAMAGE.
    63                           ; 
    64                           ; 
    65                           ; Code-generator required, PIC16F887 Definitions
    66                           ; 
    67                           ; SFR Addresses
    68  0000                     	;# 
    69  0001                     	;# 
    70  0002                     	;# 
    71  0003                     	;# 
    72  0004                     	;# 
    73  0005                     	;# 
    74  0006                     	;# 
    75  0007                     	;# 
    76  0008                     	;# 
    77  0009                     	;# 
    78  000A                     	;# 
    79  000B                     	;# 
    80  000C                     	;# 
    81  000D                     	;# 
    82  000E                     	;# 
    83  000E                     	;# 
    84  000F                     	;# 
    85  0010                     	;# 
    86  0011                     	;# 
    87  0012                     	;# 
    88  0013                     	;# 
    89  0014                     	;# 
    90  0015                     	;# 
    91  0015                     	;# 
    92  0016                     	;# 
    93  0017                     	;# 
    94  0018                     	;# 
    95  0019                     	;# 
    96  001A                     	;# 
    97  001B                     	;# 
    98  001B                     	;# 
    99  001C                     	;# 
   100  001D                     	;# 
   101  001E                     	;# 
   102  001F                     	;# 
   103  0081                     	;# 
   104  0085                     	;# 
   105  0086                     	;# 
   106  0087                     	;# 
   107  0088                     	;# 
   108  0089                     	;# 
   109  008C                     	;# 
   110  008D                     	;# 
   111  008E                     	;# 
   112  008F                     	;# 
   113  0090                     	;# 
   114  0091                     	;# 
   115  0092                     	;# 
   116  0093                     	;# 
   117  0093                     	;# 
   118  0093                     	;# 
   119  0094                     	;# 
   120  0095                     	;# 
   121  0096                     	;# 
   122  0097                     	;# 
   123  0098                     	;# 
   124  0099                     	;# 
   125  009A                     	;# 
   126  009B                     	;# 
   127  009C                     	;# 
   128  009D                     	;# 
   129  009E                     	;# 
   130  009F                     	;# 
   131  0105                     	;# 
   132  0107                     	;# 
   133  0108                     	;# 
   134  0109                     	;# 
   135  010C                     	;# 
   136  010C                     	;# 
   137  010D                     	;# 
   138  010E                     	;# 
   139  010F                     	;# 
   140  0185                     	;# 
   141  0187                     	;# 
   142  0188                     	;# 
   143  0189                     	;# 
   144  018C                     	;# 
   145  018D                     	;# 
   146  0000                     	;# 
   147  0001                     	;# 
   148  0002                     	;# 
   149  0003                     	;# 
   150  0004                     	;# 
   151  0005                     	;# 
   152  0006                     	;# 
   153  0007                     	;# 
   154  0008                     	;# 
   155  0009                     	;# 
   156  000A                     	;# 
   157  000B                     	;# 
   158  000C                     	;# 
   159  000D                     	;# 
   160  000E                     	;# 
   161  000E                     	;# 
   162  000F                     	;# 
   163  0010                     	;# 
   164  0011                     	;# 
   165  0012                     	;# 
   166  0013                     	;# 
   167  0014                     	;# 
   168  0015                     	;# 
   169  0015                     	;# 
   170  0016                     	;# 
   171  0017                     	;# 
   172  0018                     	;# 
   173  0019                     	;# 
   174  001A                     	;# 
   175  001B                     	;# 
   176  001B                     	;# 
   177  001C                     	;# 
   178  001D                     	;# 
   179  001E                     	;# 
   180  001F                     	;# 
   181  0081                     	;# 
   182  0085                     	;# 
   183  0086                     	;# 
   184  0087                     	;# 
   185  0088                     	;# 
   186  0089                     	;# 
   187  008C                     	;# 
   188  008D                     	;# 
   189  008E                     	;# 
   190  008F                     	;# 
   191  0090                     	;# 
   192  0091                     	;# 
   193  0092                     	;# 
   194  0093                     	;# 
   195  0093                     	;# 
   196  0093                     	;# 
   197  0094                     	;# 
   198  0095                     	;# 
   199  0096                     	;# 
   200  0097                     	;# 
   201  0098                     	;# 
   202  0099                     	;# 
   203  009A                     	;# 
   204  009B                     	;# 
   205  009C                     	;# 
   206  009D                     	;# 
   207  009E                     	;# 
   208  009F                     	;# 
   209  0105                     	;# 
   210  0107                     	;# 
   211  0108                     	;# 
   212  0109                     	;# 
   213  010C                     	;# 
   214  010C                     	;# 
   215  010D                     	;# 
   216  010E                     	;# 
   217  010F                     	;# 
   218  0185                     	;# 
   219  0187                     	;# 
   220  0188                     	;# 
   221  0189                     	;# 
   222  018C                     	;# 
   223  018D                     	;# 
   224  0000                     	;# 
   225  0001                     	;# 
   226  0002                     	;# 
   227  0003                     	;# 
   228  0004                     	;# 
   229  0005                     	;# 
   230  0006                     	;# 
   231  0007                     	;# 
   232  0008                     	;# 
   233  0009                     	;# 
   234  000A                     	;# 
   235  000B                     	;# 
   236  000C                     	;# 
   237  000D                     	;# 
   238  000E                     	;# 
   239  000E                     	;# 
   240  000F                     	;# 
   241  0010                     	;# 
   242  0011                     	;# 
   243  0012                     	;# 
   244  0013                     	;# 
   245  0014                     	;# 
   246  0015                     	;# 
   247  0015                     	;# 
   248  0016                     	;# 
   249  0017                     	;# 
   250  0018                     	;# 
   251  0019                     	;# 
   252  001A                     	;# 
   253  001B                     	;# 
   254  001B                     	;# 
   255  001C                     	;# 
   256  001D                     	;# 
   257  001E                     	;# 
   258  001F                     	;# 
   259  0081                     	;# 
   260  0085                     	;# 
   261  0086                     	;# 
   262  0087                     	;# 
   263  0088                     	;# 
   264  0089                     	;# 
   265  008C                     	;# 
   266  008D                     	;# 
   267  008E                     	;# 
   268  008F                     	;# 
   269  0090                     	;# 
   270  0091                     	;# 
   271  0092                     	;# 
   272  0093                     	;# 
   273  0093                     	;# 
   274  0093                     	;# 
   275  0094                     	;# 
   276  0095                     	;# 
   277  0096                     	;# 
   278  0097                     	;# 
   279  0098                     	;# 
   280  0099                     	;# 
   281  009A                     	;# 
   282  009B                     	;# 
   283  009C                     	;# 
   284  009D                     	;# 
   285  009E                     	;# 
   286  009F                     	;# 
   287  0105                     	;# 
   288  0107                     	;# 
   289  0108                     	;# 
   290  0109                     	;# 
   291  010C                     	;# 
   292  010C                     	;# 
   293  010D                     	;# 
   294  010E                     	;# 
   295  010F                     	;# 
   296  0185                     	;# 
   297  0187                     	;# 
   298  0188                     	;# 
   299  0189                     	;# 
   300  018C                     	;# 
   301  018D                     	;# 
   302  0000                     	;# 
   303  0001                     	;# 
   304  0002                     	;# 
   305  0003                     	;# 
   306  0004                     	;# 
   307  0005                     	;# 
   308  0006                     	;# 
   309  0007                     	;# 
   310  0008                     	;# 
   311  0009                     	;# 
   312  000A                     	;# 
   313  000B                     	;# 
   314  000C                     	;# 
   315  000D                     	;# 
   316  000E                     	;# 
   317  000E                     	;# 
   318  000F                     	;# 
   319  0010                     	;# 
   320  0011                     	;# 
   321  0012                     	;# 
   322  0013                     	;# 
   323  0014                     	;# 
   324  0015                     	;# 
   325  0015                     	;# 
   326  0016                     	;# 
   327  0017                     	;# 
   328  0018                     	;# 
   329  0019                     	;# 
   330  001A                     	;# 
   331  001B                     	;# 
   332  001B                     	;# 
   333  001C                     	;# 
   334  001D                     	;# 
   335  001E                     	;# 
   336  001F                     	;# 
   337  0081                     	;# 
   338  0085                     	;# 
   339  0086                     	;# 
   340  0087                     	;# 
   341  0088                     	;# 
   342  0089                     	;# 
   343  008C                     	;# 
   344  008D                     	;# 
   345  008E                     	;# 
   346  008F                     	;# 
   347  0090                     	;# 
   348  0091                     	;# 
   349  0092                     	;# 
   350  0093                     	;# 
   351  0093                     	;# 
   352  0093                     	;# 
   353  0094                     	;# 
   354  0095                     	;# 
   355  0096                     	;# 
   356  0097                     	;# 
   357  0098                     	;# 
   358  0099                     	;# 
   359  009A                     	;# 
   360  009B                     	;# 
   361  009C                     	;# 
   362  009D                     	;# 
   363  009E                     	;# 
   364  009F                     	;# 
   365  0105                     	;# 
   366  0107                     	;# 
   367  0108                     	;# 
   368  0109                     	;# 
   369  010C                     	;# 
   370  010C                     	;# 
   371  010D                     	;# 
   372  010E                     	;# 
   373  010F                     	;# 
   374  0185                     	;# 
   375  0187                     	;# 
   376  0188                     	;# 
   377  0189                     	;# 
   378  018C                     	;# 
   379  018D                     	;# 
   380  001E                     _ADRESH	set	30
   381  001F                     _ADCON0bits	set	31
   382  0009                     _PORTE	set	9
   383  0008                     _PORTD	set	8
   384  0007                     _PORTC	set	7
   385  0006                     _PORTB	set	6
   386  0005                     _PORTA	set	5
   387  003E                     _RC6	set	62
   388  003D                     _RC5	set	61
   389  003C                     _RC4	set	60
   390  009F                     _ADCON1bits	set	159
   391  008F                     _OSCCONbits	set	143
   392  0089                     _TRISE	set	137
   393  0087                     _TRISC	set	135
   394  0088                     _TRISD	set	136
   395  0086                     _TRISB	set	134
   396  0085                     _TRISA	set	133
   397  0189                     _ANSELH	set	393
   398  0188                     _ANSEL	set	392
   399                           
   400                           	psect	strings
   401  0800                     __pstrings:	
   402  0800                     stringtab:	
   403  0800                     __stringtab:	
   404                           
   405                           ;	String table - string pointers are 1 byte each
   406  0800  1BFF               	btfsc	btemp+1,7
   407  0801  280A               	ljmp	stringcode
   408  0802  1383               	bcf	3,7
   409  0803  187F               	btfsc	btemp+1,0
   410  0804  1783               	bsf	3,7
   411  0805  0800               	movf	0,w
   412  0806  0A84               	incf	4,f
   413  0807  1903               	skipnz
   414  0808  0AFF               	incf	btemp+1,f
   415  0809  0008               	return
   416  080A                     stringcode:	
   417  080A                     stringdir:	
   418  080A  3008               	movlw	high stringdir
   419  080B  008A               	movwf	10
   420  080C  0804               	movf	4,w
   421  080D  0A84               	incf	4,f
   422  080E  0782               	addwf	2,f
   423  080F                     __stringbase:	
   424  080F  3400               	retlw	0
   425  0810                     __end_of__stringtab:	
   426  0810                     STR_1:	
   427  0810  3453               	retlw	83	;'S'
   428  0811  3431               	retlw	49	;'1'
   429  0812  3420               	retlw	32	;' '
   430  0813  3420               	retlw	32	;' '
   431  0814  3420               	retlw	32	;' '
   432  0815  3420               	retlw	32	;' '
   433  0816  3453               	retlw	83	;'S'
   434  0817  3432               	retlw	50	;'2'
   435  0818  3420               	retlw	32	;' '
   436  0819  3420               	retlw	32	;' '
   437  081A  3420               	retlw	32	;' '
   438  081B  3453               	retlw	83	;'S'
   439  081C  3433               	retlw	51	;'3'
   440  081D  3400               	retlw	0
   441  081E                     STR_4:	
   442  081E  3420               	retlw	32	;' '
   443  081F  3400               	retlw	0
   444  0820                     STR_2:	
   445  0820  342E               	retlw	46	;'.'
   446  0821  3400               	retlw	0
   447  081E                     
   448                           ; #config settings
   449  0000                     
   450                           	psect	cinit
   451  07EB                     start_initialization:	
   452  07EB                     __initialization:	
   453                           
   454                           ; Clear objects allocated to BANK0
   455  07EB  1383               	bcf	3,7	;select IRP bank0
   456  07EC  3058               	movlw	low __pbssBANK0
   457  07ED  0084               	movwf	4
   458  07EE  306E               	movlw	low (__pbssBANK0+22)
   459  07EF  120A  158A  235B  120A  118A  	fcall	clear_ram0
   460                           
   461                           ; Clear objects allocated to BANK1
   462  07F4  30A0               	movlw	low __pbssBANK1
   463  07F5  0084               	movwf	4
   464  07F6  30D5               	movlw	low (__pbssBANK1+53)
   465  07F7  120A  158A  235B  120A  118A  	fcall	clear_ram0
   466  07FC                     end_of_initialization:	
   467                           ;End of C runtime variable initialization code
   468                           
   469  07FC                     __end_of__initialization:	
   470  07FC  0183               	clrf	3
   471  07FD  120A  158A  2C89   	ljmp	_main	;jump to C main() function
   472                           
   473                           	psect	bssBANK0
   474  0058                     __pbssBANK0:	
   475  0058                     _plc:	
   476  0058                     	ds	2
   477  005A                     _PI:	
   478  005A                     	ds	2
   479  005C                     _ADC_B:	
   480  005C                     	ds	2
   481  005E                     _ADC_2_B:	
   482  005E                     	ds	2
   483  0060                     _ADC_2_A:	
   484  0060                     	ds	2
   485  0062                     _DC2:	
   486  0062                     	ds	2
   487  0064                     _ADC_A:	
   488  0064                     	ds	2
   489  0066                     _ADC_1_B:	
   490  0066                     	ds	2
   491  0068                     _ADC_1_A:	
   492  0068                     	ds	2
   493  006A                     _DC1:	
   494  006A                     	ds	2
   495  006C                     _analogic_digital_b:	
   496  006C                     	ds	1
   497  006D                     _analogic_digital_a:	
   498  006D                     	ds	1
   499                           
   500                           	psect	bssBANK1
   501  00A0                     __pbssBANK1:	
   502  00A0                     _voltageb:	
   503  00A0                     	ds	4
   504  00A4                     _voltage:	
   505  00A4                     	ds	4
   506  00A8                     _ARDUINO:	
   507  00A8                     	ds	5
   508  00AD                     _POINTERB:	
   509  00AD                     	ds	5
   510  00B2                     _ADCAC_CHARC:	
   511  00B2                     	ds	5
   512  00B7                     _ADCAB_CHARB:	
   513  00B7                     	ds	5
   514  00BC                     _ADCAA_CHARA:	
   515  00BC                     	ds	5
   516  00C1                     _POINTERA:	
   517  00C1                     	ds	5
   518  00C6                     _ADCC_CHARC:	
   519  00C6                     	ds	5
   520  00CB                     _ADCB_CHARB:	
   521  00CB                     	ds	5
   522  00D0                     _ADCA_CHARA:	
   523  00D0                     	ds	5
   524                           
   525                           	psect	clrtext
   526  0B5B                     clear_ram0:	
   527                           ;	Called with FSR containing the base address, and
   528                           ;	W with the last address+1
   529                           
   530  0B5B  0064               	clrwdt	;clear the watchdog before getting into this loop
   531  0B5C                     clrloop0:	
   532  0B5C  0180               	clrf	0	;clear RAM location pointed to by FSR
   533  0B5D  0A84               	incf	4,f	;increment pointer
   534  0B5E  0604               	xorwf	4,w	;XOR with final address
   535  0B5F  1903               	btfsc	3,2	;have we reached the end yet?
   536  0B60  3400               	retlw	0	;all done for this memory range, return
   537  0B61  0604               	xorwf	4,w	;XOR again to restore value
   538  0B62  2B5C               	goto	clrloop0	;do the next byte
   539                           
   540                           	psect	cstackCOMMON
   541  0070                     __pcstackCOMMON:	
   542  0070                     ?_inicializacion:	
   543  0070                     ?_ADC:	
   544                           ; 1 bytes @ 0x0
   545                           
   546  0070                     ?_lcd_ready:	
   547                           ; 1 bytes @ 0x0
   548                           
   549  0070                     ??_lcd_ready:	
   550                           ; 1 bytes @ 0x0
   551                           
   552  0070                     ?_lcd_lat:	
   553                           ; 1 bytes @ 0x0
   554                           
   555  0070                     ??_lcd_lat:	
   556                           ; 1 bytes @ 0x0
   557                           
   558  0070                     ?_strcat:	
   559                           ; 1 bytes @ 0x0
   560                           
   561  0070                     ?_strcpy:	
   562                           ; 1 bytes @ 0x0
   563                           
   564  0070                     ?_main:	
   565                           ; 1 bytes @ 0x0
   566                           
   567  0070                     ?_lcd_cmd:	
   568                           ; 1 bytes @ 0x0
   569                           
   570  0070                     ?_lcd_dwr:	
   571                           ; 1 bytes @ 0x0
   572                           
   573  0070                     ?__Umul8_16:	
   574                           ; 1 bytes @ 0x0
   575                           
   576  0070                     ?___awdiv:	
   577                           ; 2 bytes @ 0x0
   578                           
   579  0070                     ?___lwdiv:	
   580                           ; 2 bytes @ 0x0
   581                           
   582  0070                     ?___lwmod:	
   583                           ; 2 bytes @ 0x0
   584                           
   585  0070                     ?___xxtofl:	
   586                           ; 2 bytes @ 0x0
   587                           
   588  0070                     strcat@from:	
   589                           ; 4 bytes @ 0x0
   590                           
   591  0070                     strcpy@from:	
   592                           ; 1 bytes @ 0x0
   593                           
   594  0070                     __Umul8_16@multiplicand:	
   595                           ; 1 bytes @ 0x0
   596                           
   597  0070                     ___awdiv@divisor:	
   598                           ; 1 bytes @ 0x0
   599                           
   600  0070                     ___lwdiv@divisor:	
   601                           ; 2 bytes @ 0x0
   602                           
   603  0070                     ___lwmod@divisor:	
   604                           ; 2 bytes @ 0x0
   605                           
   606  0070                     ___xxtofl@val:	
   607                           ; 2 bytes @ 0x0
   608                           
   609                           
   610                           ; 4 bytes @ 0x0
   611  0070                     	ds	1
   612  0071                     ??_strcat:	
   613  0071                     ??_strcpy:	
   614                           ; 1 bytes @ 0x1
   615                           
   616                           
   617                           ; 1 bytes @ 0x1
   618  0071                     	ds	1
   619  0072                     ??__Umul8_16:	
   620  0072                     ??_lcd_cmd:	
   621                           ; 1 bytes @ 0x2
   622                           
   623  0072                     ??_lcd_dwr:	
   624                           ; 1 bytes @ 0x2
   625                           
   626  0072                     lcd_cmd@x:	
   627                           ; 1 bytes @ 0x2
   628                           
   629  0072                     lcd_dwr@x:	
   630                           ; 1 bytes @ 0x2
   631                           
   632  0072                     strcat@cp:	
   633                           ; 1 bytes @ 0x2
   634                           
   635  0072                     strcpy@cp:	
   636                           ; 1 bytes @ 0x2
   637                           
   638  0072                     ___awdiv@dividend:	
   639                           ; 1 bytes @ 0x2
   640                           
   641  0072                     ___lwdiv@dividend:	
   642                           ; 2 bytes @ 0x2
   643                           
   644  0072                     ___lwmod@dividend:	
   645                           ; 2 bytes @ 0x2
   646                           
   647                           
   648                           ; 2 bytes @ 0x2
   649  0072                     	ds	1
   650  0073                     ??_inicializacion:	
   651  0073                     ?_lcd_msg:	
   652                           ; 1 bytes @ 0x3
   653                           
   654  0073                     strcat@to:	
   655                           ; 1 bytes @ 0x3
   656                           
   657  0073                     strcpy@to:	
   658                           ; 1 bytes @ 0x3
   659                           
   660  0073                     lcd_msg@c:	
   661                           ; 1 bytes @ 0x3
   662                           
   663                           
   664                           ; 2 bytes @ 0x3
   665  0073                     	ds	1
   666  0074                     ??___awdiv:	
   667  0074                     ??___lwdiv:	
   668                           ; 1 bytes @ 0x4
   669                           
   670  0074                     ??___lwmod:	
   671                           ; 1 bytes @ 0x4
   672                           
   673  0074                     ??___xxtofl:	
   674                           ; 1 bytes @ 0x4
   675                           
   676  0074                     __Umul8_16@product:	
   677                           ; 1 bytes @ 0x4
   678                           
   679                           
   680                           ; 2 bytes @ 0x4
   681  0074                     	ds	1
   682  0075                     ??_lcd_msg:	
   683  0075                     ___awdiv@counter:	
   684                           ; 1 bytes @ 0x5
   685                           
   686  0075                     ___lwmod@counter:	
   687                           ; 1 bytes @ 0x5
   688                           
   689  0075                     ___lwdiv@quotient:	
   690                           ; 1 bytes @ 0x5
   691                           
   692                           
   693                           ; 2 bytes @ 0x5
   694  0075                     	ds	1
   695  0076                     ___awdiv@sign:	
   696  0076                     __Umul8_16@word_mpld:	
   697                           ; 1 bytes @ 0x6
   698                           
   699                           
   700                           ; 2 bytes @ 0x6
   701  0076                     	ds	1
   702  0077                     ___lwdiv@counter:	
   703  0077                     ___awdiv@quotient:	
   704                           ; 1 bytes @ 0x7
   705                           
   706                           
   707                           ; 2 bytes @ 0x7
   708  0077                     	ds	1
   709  0078                     ?_utoa:	
   710  0078                     ___xxtofl@sign:	
   711                           ; 1 bytes @ 0x8
   712                           
   713  0078                     __Umul8_16@multiplier:	
   714                           ; 1 bytes @ 0x8
   715                           
   716  0078                     utoa@val:	
   717                           ; 1 bytes @ 0x8
   718                           
   719                           
   720                           ; 2 bytes @ 0x8
   721  0078                     	ds	1
   722  0079                     ?___awmod:	
   723  0079                     ___xxtofl@exp:	
   724                           ; 2 bytes @ 0x9
   725                           
   726  0079                     ___awmod@divisor:	
   727                           ; 1 bytes @ 0x9
   728                           
   729                           
   730                           ; 2 bytes @ 0x9
   731  0079                     	ds	1
   732  007A                     utoa@base:	
   733  007A                     ___xxtofl@arg:	
   734                           ; 2 bytes @ 0xA
   735                           
   736                           
   737                           ; 4 bytes @ 0xA
   738  007A                     	ds	1
   739  007B                     ___awmod@dividend:	
   740                           
   741                           ; 2 bytes @ 0xB
   742  007B                     	ds	1
   743  007C                     ??_utoa:	
   744                           
   745                           ; 1 bytes @ 0xC
   746  007C                     	ds	1
   747  007D                     ??_itoa:	
   748  007D                     ??___awmod:	
   749                           ; 1 bytes @ 0xD
   750                           
   751                           
   752                           ; 1 bytes @ 0xD
   753  007D                     	ds	1
   754  007E                     ??_main:	
   755                           
   756                           	psect	cstackBANK0
   757  0020                     __pcstackBANK0:	
   758                           ; 1 bytes @ 0xE
   759                           
   760  0020                     ?___flmul:	
   761  0020                     ___awmod@counter:	
   762                           ; 4 bytes @ 0x0
   763                           
   764  0020                     utoa@v:	
   765                           ; 1 bytes @ 0x0
   766                           
   767  0020                     ___flmul@b:	
   768                           ; 2 bytes @ 0x0
   769                           
   770                           
   771                           ; 4 bytes @ 0x0
   772  0020                     	ds	1
   773  0021                     ___awmod@sign:	
   774                           
   775                           ; 1 bytes @ 0x1
   776  0021                     	ds	1
   777  0022                     utoa@c:	
   778                           
   779                           ; 1 bytes @ 0x2
   780  0022                     	ds	1
   781  0023                     utoa@buf:	
   782                           
   783                           ; 1 bytes @ 0x3
   784  0023                     	ds	1
   785  0024                     ?_itoa:	
   786  0024                     itoa@val:	
   787                           ; 1 bytes @ 0x4
   788                           
   789  0024                     ___flmul@a:	
   790                           ; 2 bytes @ 0x4
   791                           
   792                           
   793                           ; 4 bytes @ 0x4
   794  0024                     	ds	2
   795  0026                     itoa@base:	
   796                           
   797                           ; 2 bytes @ 0x6
   798  0026                     	ds	2
   799  0028                     ??___flmul:	
   800                           
   801                           ; 1 bytes @ 0x8
   802  0028                     	ds	1
   803  0029                     itoa@buf:	
   804                           
   805                           ; 1 bytes @ 0x9
   806  0029                     	ds	4
   807  002D                     ___flmul@sign:	
   808                           
   809                           ; 1 bytes @ 0xD
   810  002D                     	ds	1
   811  002E                     ___flmul@grs:	
   812                           
   813                           ; 4 bytes @ 0xE
   814  002E                     	ds	4
   815  0032                     ___flmul@aexp:	
   816                           
   817                           ; 1 bytes @ 0x12
   818  0032                     	ds	1
   819  0033                     ___flmul@bexp:	
   820                           
   821                           ; 1 bytes @ 0x13
   822  0033                     	ds	1
   823  0034                     ___flmul@prod:	
   824                           
   825                           ; 4 bytes @ 0x14
   826  0034                     	ds	4
   827  0038                     ___flmul@temp:	
   828                           
   829                           ; 2 bytes @ 0x18
   830  0038                     	ds	2
   831  003A                     ?___fltol:	
   832  003A                     ?___fldiv:	
   833                           ; 4 bytes @ 0x1A
   834                           
   835  003A                     ___fltol@f1:	
   836                           ; 4 bytes @ 0x1A
   837                           
   838  003A                     ___fldiv@a:	
   839                           ; 4 bytes @ 0x1A
   840                           
   841                           
   842                           ; 4 bytes @ 0x1A
   843  003A                     	ds	4
   844  003E                     ??___fltol:	
   845  003E                     ___fldiv@b:	
   846                           ; 1 bytes @ 0x1E
   847                           
   848                           
   849                           ; 4 bytes @ 0x1E
   850  003E                     	ds	4
   851  0042                     ??___fldiv:	
   852                           
   853                           ; 1 bytes @ 0x22
   854  0042                     	ds	1
   855  0043                     ___fltol@sign1:	
   856                           
   857                           ; 1 bytes @ 0x23
   858  0043                     	ds	1
   859  0044                     ___fltol@exp1:	
   860                           
   861                           ; 1 bytes @ 0x24
   862  0044                     	ds	3
   863  0047                     ___fldiv@rem:	
   864                           
   865                           ; 4 bytes @ 0x27
   866  0047                     	ds	4
   867  004B                     ___fldiv@sign:	
   868                           
   869                           ; 1 bytes @ 0x2B
   870  004B                     	ds	1
   871  004C                     ___fldiv@new_exp:	
   872                           
   873                           ; 2 bytes @ 0x2C
   874  004C                     	ds	2
   875  004E                     ___fldiv@grs:	
   876                           
   877                           ; 4 bytes @ 0x2E
   878  004E                     	ds	4
   879  0052                     ___fldiv@bexp:	
   880                           
   881                           ; 1 bytes @ 0x32
   882  0052                     	ds	1
   883  0053                     ___fldiv@aexp:	
   884                           
   885                           ; 1 bytes @ 0x33
   886  0053                     	ds	1
   887  0054                     ??_ADC:	
   888                           
   889                           ; 1 bytes @ 0x34
   890  0054                     	ds	4
   891                           
   892                           	psect	maintext
   893  0C89                     __pmaintext:	
   894 ;;
   895 ;;Main: autosize = 0, tempsize = 0, incstack = 0, save=0
   896 ;;
   897 ;; *************** function _main *****************
   898 ;; Defined at:
   899 ;;		line 38 in file "LABORATORIO3.c"
   900 ;; Parameters:    Size  Location     Type
   901 ;;		None
   902 ;; Auto vars:     Size  Location     Type
   903 ;;		None
   904 ;; Return value:  Size  Location     Type
   905 ;;                  1    wreg      void 
   906 ;; Registers used:
   907 ;;		wreg, fsr0l, fsr0h, status,2, status,0, btemp+1, pclath, cstack
   908 ;; Tracked objects:
   909 ;;		On entry : B00/0
   910 ;;		On exit  : 0/0
   911 ;;		Unchanged: 0/0
   912 ;; Data sizes:     COMMON   BANK0   BANK1   BANK3   BANK2
   913 ;;      Params:         0       0       0       0       0
   914 ;;      Locals:         0       0       0       0       0
   915 ;;      Temps:          0       0       0       0       0
   916 ;;      Totals:         0       0       0       0       0
   917 ;;Total ram usage:        0 bytes
   918 ;; Hardware stack levels required when called:    4
   919 ;; This function calls:
   920 ;;		_ADC
   921 ;;		_inicializacion
   922 ;; This function is called by:
   923 ;;		Startup code after reset
   924 ;; This function uses a non-reentrant model
   925 ;;
   926                           
   927                           
   928                           ;psect for function _main
   929  0C89                     _main:	
   930  0C89                     l2230:	
   931                           ;incstack = 0
   932                           ; Regs used in _main: [wreg-fsr0h+status,2+status,0+btemp+1+pclath+cstack]
   933                           
   934                           
   935                           ;LABORATORIO3.c: 40:     ANSEL = 0b00001001;
   936  0C89  3009               	movlw	9
   937  0C8A  1683               	bsf	3,5	;RP0=1, select bank3
   938  0C8B  1703               	bsf	3,6	;RP1=1, select bank3
   939  0C8C  0088               	movwf	8	;volatile
   940  0C8D                     l2232:	
   941                           
   942                           ;LABORATORIO3.c: 41:     ANSELH= 0b00000000;
   943  0C8D  0189               	clrf	9	;volatile
   944  0C8E                     l2234:	
   945                           
   946                           ;LABORATORIO3.c: 42:     TRISA = 0b00000011;
   947  0C8E  3003               	movlw	3
   948  0C8F  1683               	bsf	3,5	;RP0=1, select bank1
   949  0C90  1303               	bcf	3,6	;RP1=0, select bank1
   950  0C91  0085               	movwf	5	;volatile
   951                           
   952                           ;LABORATORIO3.c: 43:     TRISB = 0b00000000;
   953  0C92  0186               	clrf	6	;volatile
   954                           
   955                           ;LABORATORIO3.c: 44:     TRISD = 0b00000000;
   956  0C93  0188               	clrf	8	;volatile
   957                           
   958                           ;LABORATORIO3.c: 45:     TRISC = 0b00000000;
   959  0C94  0187               	clrf	7	;volatile
   960                           
   961                           ;LABORATORIO3.c: 46:     TRISE = 0;
   962  0C95  0189               	clrf	9	;volatile
   963                           
   964                           ;LABORATORIO3.c: 48:     PORTA = 0;
   965  0C96  1283               	bcf	3,5	;RP0=0, select bank0
   966  0C97  1303               	bcf	3,6	;RP1=0, select bank0
   967  0C98  0185               	clrf	5	;volatile
   968                           
   969                           ;LABORATORIO3.c: 49:     PORTB = 0;
   970  0C99  0186               	clrf	6	;volatile
   971                           
   972                           ;LABORATORIO3.c: 50:     PORTC = 0;
   973  0C9A  0187               	clrf	7	;volatile
   974                           
   975                           ;LABORATORIO3.c: 51:     PORTD = 0;
   976  0C9B  0188               	clrf	8	;volatile
   977                           
   978                           ;LABORATORIO3.c: 52:     PORTE = 0;
   979  0C9C  0189               	clrf	9	;volatile
   980  0C9D                     l2236:	
   981                           
   982                           ;LABORATORIO3.c: 54:     OSCCONbits.IRCF = 0b110;
   983  0C9D  1683               	bsf	3,5	;RP0=1, select bank1
   984  0C9E  1303               	bcf	3,6	;RP1=0, select bank1
   985  0C9F  080F               	movf	15,w	;volatile
   986  0CA0  398F               	andlw	-113
   987  0CA1  3860               	iorlw	96
   988  0CA2  008F               	movwf	15	;volatile
   989  0CA3                     l2238:	
   990                           
   991                           ;LABORATORIO3.c: 55:     OSCCONbits.OSTS= 0;
   992  0CA3  118F               	bcf	15,3	;volatile
   993  0CA4                     l2240:	
   994                           
   995                           ;LABORATORIO3.c: 56:     OSCCONbits.HTS = 0;
   996  0CA4  110F               	bcf	15,2	;volatile
   997  0CA5                     l2242:	
   998                           
   999                           ;LABORATORIO3.c: 57:     OSCCONbits.LTS = 0;
  1000  0CA5  108F               	bcf	15,1	;volatile
  1001  0CA6                     l2244:	
  1002                           
  1003                           ;LABORATORIO3.c: 58:     OSCCONbits.SCS = 1;
  1004  0CA6  140F               	bsf	15,0	;volatile
  1005  0CA7                     l2246:	
  1006                           
  1007                           ;LABORATORIO3.c: 63:         inicializacion();
  1008  0CA7  120A  158A  2384  120A  158A  	fcall	_inicializacion
  1009  0CAC                     l2248:	
  1010                           
  1011                           ;LABORATORIO3.c: 64:         ADC();
  1012  0CAC  120A  118A  2190  120A  158A  	fcall	_ADC
  1013  0CB1  2CA7               	goto	l2246
  1014  0CB2  120A  118A  2800   	ljmp	start
  1015  0CB5                     __end_of_main:	
  1016                           
  1017                           	psect	text1
  1018  0B84                     __ptext1:	
  1019 ;; *************** function _inicializacion *****************
  1020 ;; Defined at:
  1021 ;;		line 57 in file "LCD.c"
  1022 ;; Parameters:    Size  Location     Type
  1023 ;;		None
  1024 ;; Auto vars:     Size  Location     Type
  1025 ;;		None
  1026 ;; Return value:  Size  Location     Type
  1027 ;;                  1    wreg      void 
  1028 ;; Registers used:
  1029 ;;		wreg, status,2, status,0, pclath, cstack
  1030 ;; Tracked objects:
  1031 ;;		On entry : 0/0
  1032 ;;		On exit  : 0/0
  1033 ;;		Unchanged: 0/0
  1034 ;; Data sizes:     COMMON   BANK0   BANK1   BANK3   BANK2
  1035 ;;      Params:         0       0       0       0       0
  1036 ;;      Locals:         0       0       0       0       0
  1037 ;;      Temps:          0       0       0       0       0
  1038 ;;      Totals:         0       0       0       0       0
  1039 ;;Total ram usage:        0 bytes
  1040 ;; Hardware stack levels used:    1
  1041 ;; Hardware stack levels required when called:    2
  1042 ;; This function calls:
  1043 ;;		_lcd_cmd
  1044 ;; This function is called by:
  1045 ;;		_main
  1046 ;; This function uses a non-reentrant model
  1047 ;;
  1048                           
  1049                           
  1050                           ;psect for function _inicializacion
  1051  0B84                     _inicializacion:	
  1052  0B84                     l2136:	
  1053                           ;incstack = 0
  1054                           ; Regs used in _inicializacion: [wreg+status,2+status,0+pclath+cstack]
  1055                           
  1056                           
  1057                           ;LCD.c: 58:     lcd_cmd(0x38);
  1058  0B84  3038               	movlw	56
  1059  0B85  120A  158A  2372  120A  158A  	fcall	_lcd_cmd
  1060                           
  1061                           ;LCD.c: 59:     lcd_cmd(0x0C);
  1062  0B8A  300C               	movlw	12
  1063  0B8B  120A  158A  2372  120A  158A  	fcall	_lcd_cmd
  1064                           
  1065                           ;LCD.c: 60:     lcd_cmd(0x01);
  1066  0B90  3001               	movlw	1
  1067  0B91  120A  158A  2372  120A  158A  	fcall	_lcd_cmd
  1068                           
  1069                           ;LCD.c: 61:     lcd_cmd(0x06);
  1070  0B96  3006               	movlw	6
  1071  0B97  120A  158A  2372  120A  158A  	fcall	_lcd_cmd
  1072                           
  1073                           ;LCD.c: 62:     lcd_cmd(0x80);
  1074  0B9C  3080               	movlw	128
  1075  0B9D  120A  158A  2372  120A  158A  	fcall	_lcd_cmd
  1076  0BA2                     l75:	
  1077  0BA2  0008               	return
  1078  0BA3                     __end_of_inicializacion:	
  1079                           
  1080                           	psect	text2
  1081  0190                     __ptext2:	
  1082 ;; *************** function _ADC *****************
  1083 ;; Defined at:
  1084 ;;		line 47 in file "analogic_digital.c"
  1085 ;; Parameters:    Size  Location     Type
  1086 ;;		None
  1087 ;; Auto vars:     Size  Location     Type
  1088 ;;		None
  1089 ;; Return value:  Size  Location     Type
  1090 ;;                  1    wreg      void 
  1091 ;; Registers used:
  1092 ;;		wreg, fsr0l, fsr0h, status,2, status,0, btemp+1, pclath, cstack
  1093 ;; Tracked objects:
  1094 ;;		On entry : 0/0
  1095 ;;		On exit  : 0/0
  1096 ;;		Unchanged: 0/0
  1097 ;; Data sizes:     COMMON   BANK0   BANK1   BANK3   BANK2
  1098 ;;      Params:         0       0       0       0       0
  1099 ;;      Locals:         0       0       0       0       0
  1100 ;;      Temps:          0       4       0       0       0
  1101 ;;      Totals:         0       4       0       0       0
  1102 ;;Total ram usage:        4 bytes
  1103 ;; Hardware stack levels used:    1
  1104 ;; Hardware stack levels required when called:    3
  1105 ;; This function calls:
  1106 ;;		___awdiv
  1107 ;;		___awmod
  1108 ;;		___fldiv
  1109 ;;		___flmul
  1110 ;;		___fltol
  1111 ;;		___xxtofl
  1112 ;;		_itoa
  1113 ;;		_lcd_cmd
  1114 ;;		_lcd_msg
  1115 ;;		_strcat
  1116 ;;		_strcpy
  1117 ;; This function is called by:
  1118 ;;		_main
  1119 ;; This function uses a non-reentrant model
  1120 ;;
  1121                           
  1122                           
  1123                           ;psect for function _ADC
  1124  0190                     _ADC:	
  1125  0190                     l145:	
  1126                           ;incstack = 0
  1127                           ; Regs used in _ADC: [wreg-fsr0h+status,2+status,0+btemp+1+pclath+cstack]
  1128                           ;analogic_digital.c: 48:     while(1){
  1129                           
  1130  0190                     l2138:	
  1131                           
  1132                           ;analogic_digital.c: 49:     ADCON0bits.ADCS = 01;
  1133  0190  1283               	bcf	3,5	;RP0=0, select bank0
  1134  0191  1303               	bcf	3,6	;RP1=0, select bank0
  1135  0192  081F               	movf	31,w	;volatile
  1136  0193  393F               	andlw	-193
  1137  0194  3840               	iorlw	64
  1138  0195  009F               	movwf	31	;volatile
  1139  0196                     l2140:	
  1140                           
  1141                           ;analogic_digital.c: 50:     ADCON0bits.ADON = 1;
  1142  0196  141F               	bsf	31,0	;volatile
  1143  0197                     l2142:	
  1144                           
  1145                           ;analogic_digital.c: 51:     ADCON1bits.ADFM = 0;
  1146  0197  1683               	bsf	3,5	;RP0=1, select bank1
  1147  0198  1303               	bcf	3,6	;RP1=0, select bank1
  1148  0199  139F               	bcf	31,7	;volatile
  1149  019A                     l2144:	
  1150                           
  1151                           ;analogic_digital.c: 52:     ADCON1bits.VCFG0 = 0;
  1152  019A  121F               	bcf	31,4	;volatile
  1153  019B                     l2146:	
  1154                           
  1155                           ;analogic_digital.c: 53:     ADCON1bits.VCFG1 = 0;
  1156  019B  129F               	bcf	31,5	;volatile
  1157  019C                     l2148:	
  1158                           
  1159                           ;analogic_digital.c: 54:     lcd_msg("S1    S2   S3");
  1160  019C  3001               	movlw	(low ((STR_1-__stringbase)| (0+32768)))& (0+255)
  1161  019D  00F3               	movwf	lcd_msg@c
  1162  019E  3080               	movlw	128
  1163  019F  00F4               	movwf	lcd_msg@c+1
  1164  01A0  120A  158A  23EA  120A  118A  	fcall	_lcd_msg
  1165  01A5                     l2150:	
  1166                           
  1167                           ;analogic_digital.c: 56:         _delay((unsigned long)((1)*(4000000/4000.0)));
  1168  01A5  30C7               	movlw	199
  1169  01A6  1283               	bcf	3,5	;RP0=0, select bank0
  1170  01A7  1303               	bcf	3,6	;RP1=0, select bank0
  1171  01A8  00D4               	movwf	??_ADC
  1172  01A9                     u2737:	
  1173  01A9  29AA               	nop2
  1174  01AA  0BD4               	decfsz	??_ADC,f
  1175  01AB  29A9               	goto	u2737
  1176  01AC  29AD               	nop2
  1177  01AD                     l2152:	
  1178                           
  1179                           ;analogic_digital.c: 57:         ADCON0bits.CHS = 0000;
  1180  01AD  30C3               	movlw	-61
  1181  01AE  1283               	bcf	3,5	;RP0=0, select bank0
  1182  01AF  1303               	bcf	3,6	;RP1=0, select bank0
  1183  01B0  059F               	andwf	31,f	;volatile
  1184  01B1                     l2154:	
  1185                           
  1186                           ;analogic_digital.c: 58:         ADCON0bits.ADON = 1;
  1187  01B1  141F               	bsf	31,0	;volatile
  1188  01B2                     l2156:	
  1189                           
  1190                           ;analogic_digital.c: 59:         ADCON0bits.GO = 1;
  1191  01B2  149F               	bsf	31,1	;volatile
  1192  01B3                     l147:	
  1193                           ;analogic_digital.c: 60:         while(ADCON0bits.GO);
  1194                           
  1195  01B3  189F               	btfsc	31,1	;volatile
  1196  01B4  29B6               	goto	u2711
  1197  01B5  29B7               	goto	u2710
  1198  01B6                     u2711:	
  1199  01B6  29B3               	goto	l147
  1200  01B7                     u2710:	
  1201  01B7                     l2158:	
  1202                           
  1203                           ;analogic_digital.c: 61:         analogic_digital_a = ADRESH;
  1204  01B7  081E               	movf	30,w	;volatile
  1205  01B8  00D4               	movwf	??_ADC
  1206  01B9  0854               	movf	??_ADC,w
  1207  01BA  00ED               	movwf	_analogic_digital_a
  1208  01BB                     l2160:	
  1209                           
  1210                           ;analogic_digital.c: 62:         voltage = (analogic_digital_a*5.0)/255.0;
  1211  01BB  3043               	movlw	67
  1212  01BC  00BD               	movwf	___fldiv@a+3
  1213  01BD  307F               	movlw	127
  1214  01BE  00BC               	movwf	___fldiv@a+2
  1215  01BF  3000               	movlw	0
  1216  01C0  00BB               	movwf	___fldiv@a+1
  1217  01C1  3000               	movlw	0
  1218  01C2  00BA               	movwf	___fldiv@a
  1219  01C3  3040               	movlw	64
  1220  01C4  00A3               	movwf	___flmul@b+3
  1221  01C5  30A0               	movlw	160
  1222  01C6  00A2               	movwf	___flmul@b+2
  1223  01C7  3000               	movlw	0
  1224  01C8  00A1               	movwf	___flmul@b+1
  1225  01C9  3000               	movlw	0
  1226  01CA  00A0               	movwf	___flmul@b
  1227  01CB  086D               	movf	_analogic_digital_a,w
  1228  01CC  00D4               	movwf	??_ADC
  1229  01CD  01D5               	clrf	??_ADC+1
  1230  01CE  01D6               	clrf	??_ADC+2
  1231  01CF  01D7               	clrf	??_ADC+3
  1232  01D0  0857               	movf	??_ADC+3,w
  1233  01D1  00F3               	movwf	___xxtofl@val+3
  1234  01D2  0856               	movf	??_ADC+2,w
  1235  01D3  00F2               	movwf	___xxtofl@val+2
  1236  01D4  0855               	movf	??_ADC+1,w
  1237  01D5  00F1               	movwf	___xxtofl@val+1
  1238  01D6  0854               	movf	??_ADC,w
  1239  01D7  00F0               	movwf	___xxtofl@val
  1240  01D8  3001               	movlw	1
  1241  01D9  120A  118A  20D6  120A  118A  	fcall	___xxtofl
  1242  01DE  0873               	movf	?___xxtofl+3,w
  1243  01DF  1283               	bcf	3,5	;RP0=0, select bank0
  1244  01E0  1303               	bcf	3,6	;RP1=0, select bank0
  1245  01E1  00A7               	movwf	___flmul@a+3
  1246  01E2  0872               	movf	?___xxtofl+2,w
  1247  01E3  00A6               	movwf	___flmul@a+2
  1248  01E4  0871               	movf	?___xxtofl+1,w
  1249  01E5  00A5               	movwf	___flmul@a+1
  1250  01E6  0870               	movf	?___xxtofl,w
  1251  01E7  00A4               	movwf	___flmul@a
  1252  01E8  120A  118A  248A  120A  118A  	fcall	___flmul
  1253  01ED  1283               	bcf	3,5	;RP0=0, select bank0
  1254  01EE  1303               	bcf	3,6	;RP1=0, select bank0
  1255  01EF  0823               	movf	?___flmul+3,w
  1256  01F0  00C1               	movwf	___fldiv@b+3
  1257  01F1  0822               	movf	?___flmul+2,w
  1258  01F2  00C0               	movwf	___fldiv@b+2
  1259  01F3  0821               	movf	?___flmul+1,w
  1260  01F4  00BF               	movwf	___fldiv@b+1
  1261  01F5  0820               	movf	?___flmul,w
  1262  01F6  00BE               	movwf	___fldiv@b
  1263  01F7  120A  158A  2623  120A  118A  	fcall	___fldiv
  1264  01FC  1283               	bcf	3,5	;RP0=0, select bank0
  1265  01FD  1303               	bcf	3,6	;RP1=0, select bank0
  1266  01FE  083D               	movf	?___fldiv+3,w
  1267  01FF  1683               	bsf	3,5	;RP0=1, select bank1
  1268  0200  1303               	bcf	3,6	;RP1=0, select bank1
  1269  0201  00A7               	movwf	(_voltage+3)^(0+128)
  1270  0202  1283               	bcf	3,5	;RP0=0, select bank0
  1271  0203  1303               	bcf	3,6	;RP1=0, select bank0
  1272  0204  083C               	movf	?___fldiv+2,w
  1273  0205  1683               	bsf	3,5	;RP0=1, select bank1
  1274  0206  1303               	bcf	3,6	;RP1=0, select bank1
  1275  0207  00A6               	movwf	(_voltage+2)^(0+128)
  1276  0208  1283               	bcf	3,5	;RP0=0, select bank0
  1277  0209  1303               	bcf	3,6	;RP1=0, select bank0
  1278  020A  083B               	movf	?___fldiv+1,w
  1279  020B  1683               	bsf	3,5	;RP0=1, select bank1
  1280  020C  1303               	bcf	3,6	;RP1=0, select bank1
  1281  020D  00A5               	movwf	(_voltage+1)^(0+128)
  1282  020E  1283               	bcf	3,5	;RP0=0, select bank0
  1283  020F  1303               	bcf	3,6	;RP1=0, select bank0
  1284  0210  083A               	movf	?___fldiv,w
  1285  0211  1683               	bsf	3,5	;RP0=1, select bank1
  1286  0212  1303               	bcf	3,6	;RP1=0, select bank1
  1287  0213  00A4               	movwf	_voltage^(0+128)
  1288  0214                     l2162:	
  1289                           
  1290                           ;analogic_digital.c: 63:         DC1 = (voltage)*100;
  1291  0214  0827               	movf	(_voltage+3)^(0+128),w
  1292  0215  1283               	bcf	3,5	;RP0=0, select bank0
  1293  0216  1303               	bcf	3,6	;RP1=0, select bank0
  1294  0217  00A7               	movwf	___flmul@a+3
  1295  0218  1683               	bsf	3,5	;RP0=1, select bank1
  1296  0219  1303               	bcf	3,6	;RP1=0, select bank1
  1297  021A  0826               	movf	(_voltage+2)^(0+128),w
  1298  021B  1283               	bcf	3,5	;RP0=0, select bank0
  1299  021C  1303               	bcf	3,6	;RP1=0, select bank0
  1300  021D  00A6               	movwf	___flmul@a+2
  1301  021E  1683               	bsf	3,5	;RP0=1, select bank1
  1302  021F  1303               	bcf	3,6	;RP1=0, select bank1
  1303  0220  0825               	movf	(_voltage+1)^(0+128),w
  1304  0221  1283               	bcf	3,5	;RP0=0, select bank0
  1305  0222  1303               	bcf	3,6	;RP1=0, select bank0
  1306  0223  00A5               	movwf	___flmul@a+1
  1307  0224  1683               	bsf	3,5	;RP0=1, select bank1
  1308  0225  1303               	bcf	3,6	;RP1=0, select bank1
  1309  0226  0824               	movf	_voltage^(0+128),w
  1310  0227  1283               	bcf	3,5	;RP0=0, select bank0
  1311  0228  1303               	bcf	3,6	;RP1=0, select bank0
  1312  0229  00A4               	movwf	___flmul@a
  1313  022A  3042               	movlw	66
  1314  022B  00A3               	movwf	___flmul@b+3
  1315  022C  30C8               	movlw	200
  1316  022D  00A2               	movwf	___flmul@b+2
  1317  022E  3000               	movlw	0
  1318  022F  00A1               	movwf	___flmul@b+1
  1319  0230  3000               	movlw	0
  1320  0231  00A0               	movwf	___flmul@b
  1321  0232  120A  118A  248A  120A  118A  	fcall	___flmul
  1322  0237  1283               	bcf	3,5	;RP0=0, select bank0
  1323  0238  1303               	bcf	3,6	;RP1=0, select bank0
  1324  0239  0823               	movf	?___flmul+3,w
  1325  023A  00BD               	movwf	___fltol@f1+3
  1326  023B  0822               	movf	?___flmul+2,w
  1327  023C  00BC               	movwf	___fltol@f1+2
  1328  023D  0821               	movf	?___flmul+1,w
  1329  023E  00BB               	movwf	___fltol@f1+1
  1330  023F  0820               	movf	?___flmul,w
  1331  0240  00BA               	movwf	___fltol@f1
  1332  0241  120A  118A  205A  120A  118A  	fcall	___fltol
  1333  0246  1283               	bcf	3,5	;RP0=0, select bank0
  1334  0247  1303               	bcf	3,6	;RP1=0, select bank0
  1335  0248  083B               	movf	?___fltol+1,w
  1336  0249  00EB               	movwf	_DC1+1
  1337  024A  083A               	movf	?___fltol,w
  1338  024B  00EA               	movwf	_DC1
  1339  024C                     l2164:	
  1340                           
  1341                           ;analogic_digital.c: 64:         ADC_1_A = DC1%10;
  1342  024C  300A               	movlw	10
  1343  024D  00F9               	movwf	___awmod@divisor
  1344  024E  3000               	movlw	0
  1345  024F  00FA               	movwf	___awmod@divisor+1
  1346  0250  086B               	movf	_DC1+1,w
  1347  0251  00FC               	movwf	___awmod@dividend+1
  1348  0252  086A               	movf	_DC1,w
  1349  0253  00FB               	movwf	___awmod@dividend
  1350  0254  120A  158A  24EF  120A  118A  	fcall	___awmod
  1351  0259  087A               	movf	?___awmod+1,w
  1352  025A  1283               	bcf	3,5	;RP0=0, select bank0
  1353  025B  1303               	bcf	3,6	;RP1=0, select bank0
  1354  025C  00E9               	movwf	_ADC_1_A+1
  1355  025D  0879               	movf	?___awmod,w
  1356  025E  00E8               	movwf	_ADC_1_A
  1357  025F                     l2166:	
  1358                           
  1359                           ;analogic_digital.c: 65:         itoa(ADCA_CHARA,ADC_1_A,10);
  1360  025F  0869               	movf	_ADC_1_A+1,w
  1361  0260  00A5               	movwf	itoa@val+1
  1362  0261  0868               	movf	_ADC_1_A,w
  1363  0262  00A4               	movwf	itoa@val
  1364  0263  300A               	movlw	10
  1365  0264  00A6               	movwf	itoa@base
  1366  0265  3000               	movlw	0
  1367  0266  00A7               	movwf	itoa@base+1
  1368  0267  30D0               	movlw	(low (_ADCA_CHARA| 0))& (0+255)
  1369  0268  120A  158A  23C4  120A  118A  	fcall	_itoa
  1370  026D                     l2168:	
  1371                           
  1372                           ;analogic_digital.c: 66:         ADC_1_B = (DC1/10)%10;
  1373  026D  300A               	movlw	10
  1374  026E  00F9               	movwf	___awmod@divisor
  1375  026F  3000               	movlw	0
  1376  0270  00FA               	movwf	___awmod@divisor+1
  1377  0271  300A               	movlw	10
  1378  0272  00F0               	movwf	___awdiv@divisor
  1379  0273  3000               	movlw	0
  1380  0274  00F1               	movwf	___awdiv@divisor+1
  1381  0275  1283               	bcf	3,5	;RP0=0, select bank0
  1382  0276  1303               	bcf	3,6	;RP1=0, select bank0
  1383  0277  086B               	movf	_DC1+1,w
  1384  0278  00F3               	movwf	___awdiv@dividend+1
  1385  0279  086A               	movf	_DC1,w
  1386  027A  00F2               	movwf	___awdiv@dividend
  1387  027B  120A  158A  254A  120A  118A  	fcall	___awdiv
  1388  0280  0871               	movf	?___awdiv+1,w
  1389  0281  00FC               	movwf	___awmod@dividend+1
  1390  0282  0870               	movf	?___awdiv,w
  1391  0283  00FB               	movwf	___awmod@dividend
  1392  0284  120A  158A  24EF  120A  118A  	fcall	___awmod
  1393  0289  087A               	movf	?___awmod+1,w
  1394  028A  1283               	bcf	3,5	;RP0=0, select bank0
  1395  028B  1303               	bcf	3,6	;RP1=0, select bank0
  1396  028C  00E7               	movwf	_ADC_1_B+1
  1397  028D  0879               	movf	?___awmod,w
  1398  028E  00E6               	movwf	_ADC_1_B
  1399  028F                     l2170:	
  1400                           
  1401                           ;analogic_digital.c: 67:         itoa(ADCB_CHARB,ADC_1_B,10);
  1402  028F  0867               	movf	_ADC_1_B+1,w
  1403  0290  00A5               	movwf	itoa@val+1
  1404  0291  0866               	movf	_ADC_1_B,w
  1405  0292  00A4               	movwf	itoa@val
  1406  0293  300A               	movlw	10
  1407  0294  00A6               	movwf	itoa@base
  1408  0295  3000               	movlw	0
  1409  0296  00A7               	movwf	itoa@base+1
  1410  0297  30CB               	movlw	(low (_ADCB_CHARB| 0))& (0+255)
  1411  0298  120A  158A  23C4  120A  118A  	fcall	_itoa
  1412  029D                     l2172:	
  1413                           
  1414                           ;analogic_digital.c: 68:         ADC_A = (DC1/100)%10;
  1415  029D  300A               	movlw	10
  1416  029E  00F9               	movwf	___awmod@divisor
  1417  029F  3000               	movlw	0
  1418  02A0  00FA               	movwf	___awmod@divisor+1
  1419  02A1  3064               	movlw	100
  1420  02A2  00F0               	movwf	___awdiv@divisor
  1421  02A3  3000               	movlw	0
  1422  02A4  00F1               	movwf	___awdiv@divisor+1
  1423  02A5  1283               	bcf	3,5	;RP0=0, select bank0
  1424  02A6  1303               	bcf	3,6	;RP1=0, select bank0
  1425  02A7  086B               	movf	_DC1+1,w
  1426  02A8  00F3               	movwf	___awdiv@dividend+1
  1427  02A9  086A               	movf	_DC1,w
  1428  02AA  00F2               	movwf	___awdiv@dividend
  1429  02AB  120A  158A  254A  120A  118A  	fcall	___awdiv
  1430  02B0  0871               	movf	?___awdiv+1,w
  1431  02B1  00FC               	movwf	___awmod@dividend+1
  1432  02B2  0870               	movf	?___awdiv,w
  1433  02B3  00FB               	movwf	___awmod@dividend
  1434  02B4  120A  158A  24EF  120A  118A  	fcall	___awmod
  1435  02B9  087A               	movf	?___awmod+1,w
  1436  02BA  1283               	bcf	3,5	;RP0=0, select bank0
  1437  02BB  1303               	bcf	3,6	;RP1=0, select bank0
  1438  02BC  00E5               	movwf	_ADC_A+1
  1439  02BD  0879               	movf	?___awmod,w
  1440  02BE  00E4               	movwf	_ADC_A
  1441  02BF                     l2174:	
  1442                           
  1443                           ;analogic_digital.c: 69:         itoa(ADCC_CHARC,ADC_A,10);
  1444  02BF  0865               	movf	_ADC_A+1,w
  1445  02C0  00A5               	movwf	itoa@val+1
  1446  02C1  0864               	movf	_ADC_A,w
  1447  02C2  00A4               	movwf	itoa@val
  1448  02C3  300A               	movlw	10
  1449  02C4  00A6               	movwf	itoa@base
  1450  02C5  3000               	movlw	0
  1451  02C6  00A7               	movwf	itoa@base+1
  1452  02C7  30C6               	movlw	(low (_ADCC_CHARC| 0))& (0+255)
  1453  02C8  120A  158A  23C4  120A  118A  	fcall	_itoa
  1454  02CD                     l2176:	
  1455                           
  1456                           ;analogic_digital.c: 70:         strcat(ADCB_CHARB,ADCA_CHARA);
  1457  02CD  30D0               	movlw	(low (_ADCA_CHARA| 0))& (0+255)
  1458  02CE  1283               	bcf	3,5	;RP0=0, select bank0
  1459  02CF  1303               	bcf	3,6	;RP1=0, select bank0
  1460  02D0  00D4               	movwf	??_ADC
  1461  02D1  0854               	movf	??_ADC,w
  1462  02D2  00F0               	movwf	strcat@from
  1463  02D3  30CB               	movlw	(low (_ADCB_CHARB| 0))& (0+255)
  1464  02D4  120A  158A  2460  120A  118A  	fcall	_strcat
  1465  02D9                     l2178:	
  1466                           
  1467                           ;analogic_digital.c: 71:         strcpy(POINTERA,".");
  1468  02D9  3011               	movlw	(low ((STR_2-__stringbase)| (0+32768)))& (0+255)
  1469  02DA  1283               	bcf	3,5	;RP0=0, select bank0
  1470  02DB  1303               	bcf	3,6	;RP1=0, select bank0
  1471  02DC  00D4               	movwf	??_ADC
  1472  02DD  0854               	movf	??_ADC,w
  1473  02DE  00F0               	movwf	strcpy@from
  1474  02DF  30C1               	movlw	(low (_POINTERA| 0))& (0+255)
  1475  02E0  120A  158A  23A3  120A  118A  	fcall	_strcpy
  1476  02E5                     l2180:	
  1477                           
  1478                           ;analogic_digital.c: 72:         strcat(POINTERA,ADCB_CHARB);
  1479  02E5  30CB               	movlw	(low (_ADCB_CHARB| 0))& (0+255)
  1480  02E6  1283               	bcf	3,5	;RP0=0, select bank0
  1481  02E7  1303               	bcf	3,6	;RP1=0, select bank0
  1482  02E8  00D4               	movwf	??_ADC
  1483  02E9  0854               	movf	??_ADC,w
  1484  02EA  00F0               	movwf	strcat@from
  1485  02EB  30C1               	movlw	(low (_POINTERA| 0))& (0+255)
  1486  02EC  120A  158A  2460  120A  118A  	fcall	_strcat
  1487  02F1                     l2182:	
  1488                           
  1489                           ;analogic_digital.c: 73:         strcat(ADCC_CHARC,POINTERA);
  1490  02F1  30C1               	movlw	(low (_POINTERA| 0))& (0+255)
  1491  02F2  1283               	bcf	3,5	;RP0=0, select bank0
  1492  02F3  1303               	bcf	3,6	;RP1=0, select bank0
  1493  02F4  00D4               	movwf	??_ADC
  1494  02F5  0854               	movf	??_ADC,w
  1495  02F6  00F0               	movwf	strcat@from
  1496  02F7  30C6               	movlw	(low (_ADCC_CHARC| 0))& (0+255)
  1497  02F8  120A  158A  2460  120A  118A  	fcall	_strcat
  1498  02FD                     l2184:	
  1499                           
  1500                           ;analogic_digital.c: 75:         _delay((unsigned long)((600)*(4000000/4000000.0)));
  1501  02FD  30C7               	movlw	199
  1502  02FE  1283               	bcf	3,5	;RP0=0, select bank0
  1503  02FF  1303               	bcf	3,6	;RP1=0, select bank0
  1504  0300  00D4               	movwf	??_ADC
  1505  0301                     u2747:	
  1506  0301  0BD4               	decfsz	??_ADC,f
  1507  0302  2B01               	goto	u2747
  1508  0303                     l2186:	
  1509                           
  1510                           ;analogic_digital.c: 76:         ADCON0bits.CHS = 0001;
  1511  0303  1283               	bcf	3,5	;RP0=0, select bank0
  1512  0304  1303               	bcf	3,6	;RP1=0, select bank0
  1513  0305  081F               	movf	31,w	;volatile
  1514  0306  39C3               	andlw	-61
  1515  0307  3804               	iorlw	4
  1516  0308  009F               	movwf	31	;volatile
  1517  0309                     l2188:	
  1518                           
  1519                           ;analogic_digital.c: 77:         ADCON0bits.ADON = 1;
  1520  0309  141F               	bsf	31,0	;volatile
  1521  030A                     l2190:	
  1522                           
  1523                           ;analogic_digital.c: 78:         ADCON0bits.GO = 1;
  1524  030A  149F               	bsf	31,1	;volatile
  1525  030B                     l150:	
  1526                           ;analogic_digital.c: 79:         while(ADCON0bits.GO);
  1527                           
  1528  030B  189F               	btfsc	31,1	;volatile
  1529  030C  2B0E               	goto	u2721
  1530  030D  2B0F               	goto	u2720
  1531  030E                     u2721:	
  1532  030E  2B0B               	goto	l150
  1533  030F                     u2720:	
  1534  030F                     l2192:	
  1535                           
  1536                           ;analogic_digital.c: 80:         analogic_digital_b = ADRESH;
  1537  030F  081E               	movf	30,w	;volatile
  1538  0310  00D4               	movwf	??_ADC
  1539  0311  0854               	movf	??_ADC,w
  1540  0312  00EC               	movwf	_analogic_digital_b
  1541  0313                     l2194:	
  1542                           
  1543                           ;analogic_digital.c: 81:         voltageb = analogic_digital_b*5.0/255.0;
  1544  0313  3043               	movlw	67
  1545  0314  00BD               	movwf	___fldiv@a+3
  1546  0315  307F               	movlw	127
  1547  0316  00BC               	movwf	___fldiv@a+2
  1548  0317  3000               	movlw	0
  1549  0318  00BB               	movwf	___fldiv@a+1
  1550  0319  3000               	movlw	0
  1551  031A  00BA               	movwf	___fldiv@a
  1552  031B  3040               	movlw	64
  1553  031C  00A3               	movwf	___flmul@b+3
  1554  031D  30A0               	movlw	160
  1555  031E  00A2               	movwf	___flmul@b+2
  1556  031F  3000               	movlw	0
  1557  0320  00A1               	movwf	___flmul@b+1
  1558  0321  3000               	movlw	0
  1559  0322  00A0               	movwf	___flmul@b
  1560  0323  086C               	movf	_analogic_digital_b,w
  1561  0324  00D4               	movwf	??_ADC
  1562  0325  01D5               	clrf	??_ADC+1
  1563  0326  01D6               	clrf	??_ADC+2
  1564  0327  01D7               	clrf	??_ADC+3
  1565  0328  0857               	movf	??_ADC+3,w
  1566  0329  00F3               	movwf	___xxtofl@val+3
  1567  032A  0856               	movf	??_ADC+2,w
  1568  032B  00F2               	movwf	___xxtofl@val+2
  1569  032C  0855               	movf	??_ADC+1,w
  1570  032D  00F1               	movwf	___xxtofl@val+1
  1571  032E  0854               	movf	??_ADC,w
  1572  032F  00F0               	movwf	___xxtofl@val
  1573  0330  3001               	movlw	1
  1574  0331  120A  118A  20D6  120A  118A  	fcall	___xxtofl
  1575  0336  0873               	movf	?___xxtofl+3,w
  1576  0337  1283               	bcf	3,5	;RP0=0, select bank0
  1577  0338  1303               	bcf	3,6	;RP1=0, select bank0
  1578  0339  00A7               	movwf	___flmul@a+3
  1579  033A  0872               	movf	?___xxtofl+2,w
  1580  033B  00A6               	movwf	___flmul@a+2
  1581  033C  0871               	movf	?___xxtofl+1,w
  1582  033D  00A5               	movwf	___flmul@a+1
  1583  033E  0870               	movf	?___xxtofl,w
  1584  033F  00A4               	movwf	___flmul@a
  1585  0340  120A  118A  248A  120A  118A  	fcall	___flmul
  1586  0345  1283               	bcf	3,5	;RP0=0, select bank0
  1587  0346  1303               	bcf	3,6	;RP1=0, select bank0
  1588  0347  0823               	movf	?___flmul+3,w
  1589  0348  00C1               	movwf	___fldiv@b+3
  1590  0349  0822               	movf	?___flmul+2,w
  1591  034A  00C0               	movwf	___fldiv@b+2
  1592  034B  0821               	movf	?___flmul+1,w
  1593  034C  00BF               	movwf	___fldiv@b+1
  1594  034D  0820               	movf	?___flmul,w
  1595  034E  00BE               	movwf	___fldiv@b
  1596  034F  120A  158A  2623  120A  118A  	fcall	___fldiv
  1597  0354  1283               	bcf	3,5	;RP0=0, select bank0
  1598  0355  1303               	bcf	3,6	;RP1=0, select bank0
  1599  0356  083D               	movf	?___fldiv+3,w
  1600  0357  1683               	bsf	3,5	;RP0=1, select bank1
  1601  0358  1303               	bcf	3,6	;RP1=0, select bank1
  1602  0359  00A3               	movwf	(_voltageb+3)^(0+128)
  1603  035A  1283               	bcf	3,5	;RP0=0, select bank0
  1604  035B  1303               	bcf	3,6	;RP1=0, select bank0
  1605  035C  083C               	movf	?___fldiv+2,w
  1606  035D  1683               	bsf	3,5	;RP0=1, select bank1
  1607  035E  1303               	bcf	3,6	;RP1=0, select bank1
  1608  035F  00A2               	movwf	(_voltageb+2)^(0+128)
  1609  0360  1283               	bcf	3,5	;RP0=0, select bank0
  1610  0361  1303               	bcf	3,6	;RP1=0, select bank0
  1611  0362  083B               	movf	?___fldiv+1,w
  1612  0363  1683               	bsf	3,5	;RP0=1, select bank1
  1613  0364  1303               	bcf	3,6	;RP1=0, select bank1
  1614  0365  00A1               	movwf	(_voltageb+1)^(0+128)
  1615  0366  1283               	bcf	3,5	;RP0=0, select bank0
  1616  0367  1303               	bcf	3,6	;RP1=0, select bank0
  1617  0368  083A               	movf	?___fldiv,w
  1618  0369  1683               	bsf	3,5	;RP0=1, select bank1
  1619  036A  1303               	bcf	3,6	;RP1=0, select bank1
  1620  036B  00A0               	movwf	_voltageb^(0+128)
  1621  036C                     l2196:	
  1622                           
  1623                           ;analogic_digital.c: 82:         DC2 = (voltageb)*100;
  1624  036C  0823               	movf	(_voltageb+3)^(0+128),w
  1625  036D  1283               	bcf	3,5	;RP0=0, select bank0
  1626  036E  1303               	bcf	3,6	;RP1=0, select bank0
  1627  036F  00A7               	movwf	___flmul@a+3
  1628  0370  1683               	bsf	3,5	;RP0=1, select bank1
  1629  0371  1303               	bcf	3,6	;RP1=0, select bank1
  1630  0372  0822               	movf	(_voltageb+2)^(0+128),w
  1631  0373  1283               	bcf	3,5	;RP0=0, select bank0
  1632  0374  1303               	bcf	3,6	;RP1=0, select bank0
  1633  0375  00A6               	movwf	___flmul@a+2
  1634  0376  1683               	bsf	3,5	;RP0=1, select bank1
  1635  0377  1303               	bcf	3,6	;RP1=0, select bank1
  1636  0378  0821               	movf	(_voltageb+1)^(0+128),w
  1637  0379  1283               	bcf	3,5	;RP0=0, select bank0
  1638  037A  1303               	bcf	3,6	;RP1=0, select bank0
  1639  037B  00A5               	movwf	___flmul@a+1
  1640  037C  1683               	bsf	3,5	;RP0=1, select bank1
  1641  037D  1303               	bcf	3,6	;RP1=0, select bank1
  1642  037E  0820               	movf	_voltageb^(0+128),w
  1643  037F  1283               	bcf	3,5	;RP0=0, select bank0
  1644  0380  1303               	bcf	3,6	;RP1=0, select bank0
  1645  0381  00A4               	movwf	___flmul@a
  1646  0382  3042               	movlw	66
  1647  0383  00A3               	movwf	___flmul@b+3
  1648  0384  30C8               	movlw	200
  1649  0385  00A2               	movwf	___flmul@b+2
  1650  0386  3000               	movlw	0
  1651  0387  00A1               	movwf	___flmul@b+1
  1652  0388  3000               	movlw	0
  1653  0389  00A0               	movwf	___flmul@b
  1654  038A  120A  118A  248A  120A  118A  	fcall	___flmul
  1655  038F  1283               	bcf	3,5	;RP0=0, select bank0
  1656  0390  1303               	bcf	3,6	;RP1=0, select bank0
  1657  0391  0823               	movf	?___flmul+3,w
  1658  0392  00BD               	movwf	___fltol@f1+3
  1659  0393  0822               	movf	?___flmul+2,w
  1660  0394  00BC               	movwf	___fltol@f1+2
  1661  0395  0821               	movf	?___flmul+1,w
  1662  0396  00BB               	movwf	___fltol@f1+1
  1663  0397  0820               	movf	?___flmul,w
  1664  0398  00BA               	movwf	___fltol@f1
  1665  0399  120A  118A  205A  120A  118A  	fcall	___fltol
  1666  039E  1283               	bcf	3,5	;RP0=0, select bank0
  1667  039F  1303               	bcf	3,6	;RP1=0, select bank0
  1668  03A0  083B               	movf	?___fltol+1,w
  1669  03A1  00E3               	movwf	_DC2+1
  1670  03A2  083A               	movf	?___fltol,w
  1671  03A3  00E2               	movwf	_DC2
  1672  03A4                     l2198:	
  1673                           
  1674                           ;analogic_digital.c: 83:         ADC_2_A = DC2%10;
  1675  03A4  300A               	movlw	10
  1676  03A5  00F9               	movwf	___awmod@divisor
  1677  03A6  3000               	movlw	0
  1678  03A7  00FA               	movwf	___awmod@divisor+1
  1679  03A8  0863               	movf	_DC2+1,w
  1680  03A9  00FC               	movwf	___awmod@dividend+1
  1681  03AA  0862               	movf	_DC2,w
  1682  03AB  00FB               	movwf	___awmod@dividend
  1683  03AC  120A  158A  24EF  120A  118A  	fcall	___awmod
  1684  03B1  087A               	movf	?___awmod+1,w
  1685  03B2  1283               	bcf	3,5	;RP0=0, select bank0
  1686  03B3  1303               	bcf	3,6	;RP1=0, select bank0
  1687  03B4  00E1               	movwf	_ADC_2_A+1
  1688  03B5  0879               	movf	?___awmod,w
  1689  03B6  00E0               	movwf	_ADC_2_A
  1690  03B7                     l2200:	
  1691                           
  1692                           ;analogic_digital.c: 84:         itoa(ADCAA_CHARA,ADC_2_A,10);
  1693  03B7  0861               	movf	_ADC_2_A+1,w
  1694  03B8  00A5               	movwf	itoa@val+1
  1695  03B9  0860               	movf	_ADC_2_A,w
  1696  03BA  00A4               	movwf	itoa@val
  1697  03BB  300A               	movlw	10
  1698  03BC  00A6               	movwf	itoa@base
  1699  03BD  3000               	movlw	0
  1700  03BE  00A7               	movwf	itoa@base+1
  1701  03BF  30BC               	movlw	(low (_ADCAA_CHARA| 0))& (0+255)
  1702  03C0  120A  158A  23C4  120A  118A  	fcall	_itoa
  1703  03C5                     l2202:	
  1704                           
  1705                           ;analogic_digital.c: 85:         ADC_2_B = (DC2/10)%10;
  1706  03C5  300A               	movlw	10
  1707  03C6  00F9               	movwf	___awmod@divisor
  1708  03C7  3000               	movlw	0
  1709  03C8  00FA               	movwf	___awmod@divisor+1
  1710  03C9  300A               	movlw	10
  1711  03CA  00F0               	movwf	___awdiv@divisor
  1712  03CB  3000               	movlw	0
  1713  03CC  00F1               	movwf	___awdiv@divisor+1
  1714  03CD  1283               	bcf	3,5	;RP0=0, select bank0
  1715  03CE  1303               	bcf	3,6	;RP1=0, select bank0
  1716  03CF  0863               	movf	_DC2+1,w
  1717  03D0  00F3               	movwf	___awdiv@dividend+1
  1718  03D1  0862               	movf	_DC2,w
  1719  03D2  00F2               	movwf	___awdiv@dividend
  1720  03D3  120A  158A  254A  120A  118A  	fcall	___awdiv
  1721  03D8  0871               	movf	?___awdiv+1,w
  1722  03D9  00FC               	movwf	___awmod@dividend+1
  1723  03DA  0870               	movf	?___awdiv,w
  1724  03DB  00FB               	movwf	___awmod@dividend
  1725  03DC  120A  158A  24EF  120A  118A  	fcall	___awmod
  1726  03E1  087A               	movf	?___awmod+1,w
  1727  03E2  1283               	bcf	3,5	;RP0=0, select bank0
  1728  03E3  1303               	bcf	3,6	;RP1=0, select bank0
  1729  03E4  00DF               	movwf	_ADC_2_B+1
  1730  03E5  0879               	movf	?___awmod,w
  1731  03E6  00DE               	movwf	_ADC_2_B
  1732  03E7                     l2204:	
  1733                           
  1734                           ;analogic_digital.c: 86:         itoa(ADCAB_CHARB,ADC_2_B,10);
  1735  03E7  085F               	movf	_ADC_2_B+1,w
  1736  03E8  00A5               	movwf	itoa@val+1
  1737  03E9  085E               	movf	_ADC_2_B,w
  1738  03EA  00A4               	movwf	itoa@val
  1739  03EB  300A               	movlw	10
  1740  03EC  00A6               	movwf	itoa@base
  1741  03ED  3000               	movlw	0
  1742  03EE  00A7               	movwf	itoa@base+1
  1743  03EF  30B7               	movlw	(low (_ADCAB_CHARB| 0))& (0+255)
  1744  03F0  120A  158A  23C4  120A  118A  	fcall	_itoa
  1745  03F5                     l2206:	
  1746                           
  1747                           ;analogic_digital.c: 87:         ADC_B = (DC2/100)%10;
  1748  03F5  300A               	movlw	10
  1749  03F6  00F9               	movwf	___awmod@divisor
  1750  03F7  3000               	movlw	0
  1751  03F8  00FA               	movwf	___awmod@divisor+1
  1752  03F9  3064               	movlw	100
  1753  03FA  00F0               	movwf	___awdiv@divisor
  1754  03FB  3000               	movlw	0
  1755  03FC  00F1               	movwf	___awdiv@divisor+1
  1756  03FD  1283               	bcf	3,5	;RP0=0, select bank0
  1757  03FE  1303               	bcf	3,6	;RP1=0, select bank0
  1758  03FF  0863               	movf	_DC2+1,w
  1759  0400  00F3               	movwf	___awdiv@dividend+1
  1760  0401  0862               	movf	_DC2,w
  1761  0402  00F2               	movwf	___awdiv@dividend
  1762  0403  120A  158A  254A  120A  118A  	fcall	___awdiv
  1763  0408  0871               	movf	?___awdiv+1,w
  1764  0409  00FC               	movwf	___awmod@dividend+1
  1765  040A  0870               	movf	?___awdiv,w
  1766  040B  00FB               	movwf	___awmod@dividend
  1767  040C  120A  158A  24EF  120A  118A  	fcall	___awmod
  1768  0411  087A               	movf	?___awmod+1,w
  1769  0412  1283               	bcf	3,5	;RP0=0, select bank0
  1770  0413  1303               	bcf	3,6	;RP1=0, select bank0
  1771  0414  00DD               	movwf	_ADC_B+1
  1772  0415  0879               	movf	?___awmod,w
  1773  0416  00DC               	movwf	_ADC_B
  1774  0417                     l2208:	
  1775                           
  1776                           ;analogic_digital.c: 88:         itoa(ADCAC_CHARC,ADC_B,10);
  1777  0417  085D               	movf	_ADC_B+1,w
  1778  0418  00A5               	movwf	itoa@val+1
  1779  0419  085C               	movf	_ADC_B,w
  1780  041A  00A4               	movwf	itoa@val
  1781  041B  300A               	movlw	10
  1782  041C  00A6               	movwf	itoa@base
  1783  041D  3000               	movlw	0
  1784  041E  00A7               	movwf	itoa@base+1
  1785  041F  30B2               	movlw	(low (_ADCAC_CHARC| 0))& (0+255)
  1786  0420  120A  158A  23C4  120A  118A  	fcall	_itoa
  1787  0425                     l2210:	
  1788                           
  1789                           ;analogic_digital.c: 89:         strcat(ADCAB_CHARB,ADCAA_CHARA);
  1790  0425  30BC               	movlw	(low (_ADCAA_CHARA| 0))& (0+255)
  1791  0426  1283               	bcf	3,5	;RP0=0, select bank0
  1792  0427  1303               	bcf	3,6	;RP1=0, select bank0
  1793  0428  00D4               	movwf	??_ADC
  1794  0429  0854               	movf	??_ADC,w
  1795  042A  00F0               	movwf	strcat@from
  1796  042B  30B7               	movlw	(low (_ADCAB_CHARB| 0))& (0+255)
  1797  042C  120A  158A  2460  120A  118A  	fcall	_strcat
  1798  0431                     l2212:	
  1799                           
  1800                           ;analogic_digital.c: 90:         strcpy(POINTERB,".");
  1801  0431  3011               	movlw	(low ((STR_2-__stringbase)| (0+32768)))& (0+255)
  1802  0432  1283               	bcf	3,5	;RP0=0, select bank0
  1803  0433  1303               	bcf	3,6	;RP1=0, select bank0
  1804  0434  00D4               	movwf	??_ADC
  1805  0435  0854               	movf	??_ADC,w
  1806  0436  00F0               	movwf	strcpy@from
  1807  0437  30AD               	movlw	(low (_POINTERB| 0))& (0+255)
  1808  0438  120A  158A  23A3  120A  118A  	fcall	_strcpy
  1809  043D                     l2214:	
  1810                           
  1811                           ;analogic_digital.c: 91:         strcat(POINTERB,ADCAB_CHARB);
  1812  043D  30B7               	movlw	(low (_ADCAB_CHARB| 0))& (0+255)
  1813  043E  1283               	bcf	3,5	;RP0=0, select bank0
  1814  043F  1303               	bcf	3,6	;RP1=0, select bank0
  1815  0440  00D4               	movwf	??_ADC
  1816  0441  0854               	movf	??_ADC,w
  1817  0442  00F0               	movwf	strcat@from
  1818  0443  30AD               	movlw	(low (_POINTERB| 0))& (0+255)
  1819  0444  120A  158A  2460  120A  118A  	fcall	_strcat
  1820  0449                     l2216:	
  1821                           
  1822                           ;analogic_digital.c: 92:         strcat(ADCAC_CHARC,POINTERB);
  1823  0449  30AD               	movlw	(low (_POINTERB| 0))& (0+255)
  1824  044A  1283               	bcf	3,5	;RP0=0, select bank0
  1825  044B  1303               	bcf	3,6	;RP1=0, select bank0
  1826  044C  00D4               	movwf	??_ADC
  1827  044D  0854               	movf	??_ADC,w
  1828  044E  00F0               	movwf	strcat@from
  1829  044F  30B2               	movlw	(low (_ADCAC_CHARC| 0))& (0+255)
  1830  0450  120A  158A  2460  120A  118A  	fcall	_strcat
  1831  0455                     l2218:	
  1832                           
  1833                           ;analogic_digital.c: 94:         lcd_cmd(0xC0);
  1834  0455  30C0               	movlw	192
  1835  0456  120A  158A  2372  120A  118A  	fcall	_lcd_cmd
  1836  045B                     l2220:	
  1837                           
  1838                           ;analogic_digital.c: 95:         lcd_msg(ADCC_CHARC);
  1839  045B  30C6               	movlw	(low (_ADCC_CHARC| 0))& (0+255)
  1840  045C  00F3               	movwf	lcd_msg@c
  1841  045D  3000               	movlw	0
  1842  045E  00F4               	movwf	lcd_msg@c+1
  1843  045F  120A  158A  23EA  120A  118A  	fcall	_lcd_msg
  1844  0464                     l2222:	
  1845                           
  1846                           ;analogic_digital.c: 96:         lcd_msg(" ");
  1847  0464  300F               	movlw	(low ((STR_4-__stringbase)| (0+32768)))& (0+255)
  1848  0465  00F3               	movwf	lcd_msg@c
  1849  0466  3080               	movlw	128
  1850  0467  00F4               	movwf	lcd_msg@c+1
  1851  0468  120A  158A  23EA  120A  118A  	fcall	_lcd_msg
  1852  046D                     l2224:	
  1853                           
  1854                           ;analogic_digital.c: 97:         lcd_msg(ADCAC_CHARC);
  1855  046D  30B2               	movlw	(low (_ADCAC_CHARC| 0))& (0+255)
  1856  046E  00F3               	movwf	lcd_msg@c
  1857  046F  3000               	movlw	0
  1858  0470  00F4               	movwf	lcd_msg@c+1
  1859  0471  120A  158A  23EA  120A  118A  	fcall	_lcd_msg
  1860  0476                     l2226:	
  1861                           
  1862                           ;analogic_digital.c: 98:         lcd_msg(" ");
  1863  0476  300F               	movlw	(low ((STR_4-__stringbase)| (0+32768)))& (0+255)
  1864  0477  00F3               	movwf	lcd_msg@c
  1865  0478  3080               	movlw	128
  1866  0479  00F4               	movwf	lcd_msg@c+1
  1867  047A  120A  158A  23EA  120A  118A  	fcall	_lcd_msg
  1868  047F                     l2228:	
  1869                           
  1870                           ;analogic_digital.c: 99:         lcd_msg(ARDUINO);
  1871  047F  30A8               	movlw	(low (_ARDUINO| 0))& (0+255)
  1872  0480  00F3               	movwf	lcd_msg@c
  1873  0481  3000               	movlw	0
  1874  0482  00F4               	movwf	lcd_msg@c+1
  1875  0483  120A  158A  23EA  120A  118A  	fcall	_lcd_msg
  1876  0488  29A5               	goto	l2150
  1877  0489  0008               	return
  1878  048A                     __end_of_ADC:	
  1879                           
  1880                           	psect	text3
  1881  0BA3                     __ptext3:	
  1882 ;; *************** function _strcpy *****************
  1883 ;; Defined at:
  1884 ;;		line 8 in file "C:\Program Files (x86)\Microchip\xc8\v2.10\pic\sources\c90\common\strcpy.c"
  1885 ;; Parameters:    Size  Location     Type
  1886 ;;  to              1    wreg     PTR unsigned char 
  1887 ;;		 -> POINTERB(5), POINTERA(5), 
  1888 ;;  from            1    0[COMMON] PTR const unsigned char 
  1889 ;;		 -> STR_3(2), STR_2(2), 
  1890 ;; Auto vars:     Size  Location     Type
  1891 ;;  to              1    3[COMMON] PTR unsigned char 
  1892 ;;		 -> POINTERB(5), POINTERA(5), 
  1893 ;;  cp              1    2[COMMON] PTR unsigned char 
  1894 ;;		 -> POINTERB(5), POINTERA(5), 
  1895 ;; Return value:  Size  Location     Type
  1896 ;;                  1    wreg      PTR unsigned char 
  1897 ;; Registers used:
  1898 ;;		wreg, fsr0l, fsr0h, status,2, status,0, pclath
  1899 ;; Tracked objects:
  1900 ;;		On entry : 0/0
  1901 ;;		On exit  : 0/0
  1902 ;;		Unchanged: 0/0
  1903 ;; Data sizes:     COMMON   BANK0   BANK1   BANK3   BANK2
  1904 ;;      Params:         1       0       0       0       0
  1905 ;;      Locals:         2       0       0       0       0
  1906 ;;      Temps:          1       0       0       0       0
  1907 ;;      Totals:         4       0       0       0       0
  1908 ;;Total ram usage:        4 bytes
  1909 ;; Hardware stack levels used:    2
  1910 ;; This function calls:
  1911 ;;		Nothing
  1912 ;; This function is called by:
  1913 ;;		_ADC
  1914 ;; This function uses a non-reentrant model
  1915 ;;
  1916                           
  1917                           
  1918                           ;psect for function _strcpy
  1919  0BA3                     _strcpy:	
  1920                           
  1921                           ;incstack = 0
  1922                           ; Regs used in _strcpy: [wreg-fsr0h+status,2+status,0+pclath]
  1923                           ;strcpy@to stored from wreg
  1924  0BA3  00F3               	movwf	strcpy@to
  1925  0BA4                     l1686:	
  1926  0BA4  0873               	movf	strcpy@to,w
  1927  0BA5  00F1               	movwf	??_strcpy
  1928  0BA6  0871               	movf	??_strcpy,w
  1929  0BA7  00F2               	movwf	strcpy@cp
  1930  0BA8  2BB1               	goto	l1690
  1931  0BA9                     l1688:	
  1932  0BA9  3001               	movlw	1
  1933  0BAA  00F1               	movwf	??_strcpy
  1934  0BAB  0871               	movf	??_strcpy,w
  1935  0BAC  07F2               	addwf	strcpy@cp,f
  1936  0BAD  3001               	movlw	1
  1937  0BAE  00F1               	movwf	??_strcpy
  1938  0BAF  0871               	movf	??_strcpy,w
  1939  0BB0  07F0               	addwf	strcpy@from,f
  1940  0BB1                     l1690:	
  1941  0BB1  0870               	movf	strcpy@from,w
  1942  0BB2  0084               	movwf	4
  1943  0BB3  120A  158A  200A  120A  158A  	fcall	stringdir
  1944  0BB8  00F1               	movwf	??_strcpy
  1945  0BB9  0872               	movf	strcpy@cp,w
  1946  0BBA  0084               	movwf	4
  1947  0BBB  0871               	movf	??_strcpy,w
  1948  0BBC  1383               	bcf	3,7	;select IRP bank0
  1949  0BBD  0080               	movwf	0
  1950  0BBE  0800               	movf	0,w
  1951  0BBF  1D03               	btfss	3,2
  1952  0BC0  2BC2               	goto	u1611
  1953  0BC1  2BC3               	goto	u1610
  1954  0BC2                     u1611:	
  1955  0BC2  2BA9               	goto	l1688
  1956  0BC3                     u1610:	
  1957  0BC3                     l714:	
  1958  0BC3  0008               	return
  1959  0BC4                     __end_of_strcpy:	
  1960                           
  1961                           	psect	text4
  1962  0C60                     __ptext4:	
  1963 ;; *************** function _strcat *****************
  1964 ;; Defined at:
  1965 ;;		line 8 in file "C:\Program Files (x86)\Microchip\xc8\v2.10\pic\sources\c90\common\strcat.c"
  1966 ;; Parameters:    Size  Location     Type
  1967 ;;  to              1    wreg     PTR unsigned char 
  1968 ;;		 -> POINTERB(5), ADCAC_CHARC(5), ADCAB_CHARB(5), POINTERA(5), 
  1969 ;;		 -> ADCC_CHARC(5), ADCB_CHARB(5), 
  1970 ;;  from            1    0[COMMON] PTR const unsigned char 
  1971 ;;		 -> POINTERB(5), ADCAB_CHARB(5), ADCAA_CHARA(5), POINTERA(5), 
  1972 ;;		 -> ADCB_CHARB(5), ADCA_CHARA(5), 
  1973 ;; Auto vars:     Size  Location     Type
  1974 ;;  to              1    3[COMMON] PTR unsigned char 
  1975 ;;		 -> POINTERB(5), ADCAC_CHARC(5), ADCAB_CHARB(5), POINTERA(5), 
  1976 ;;		 -> ADCC_CHARC(5), ADCB_CHARB(5), 
  1977 ;;  cp              1    2[COMMON] PTR unsigned char 
  1978 ;;		 -> POINTERB(5), ADCAC_CHARC(5), ADCAB_CHARB(5), POINTERA(5), 
  1979 ;;		 -> ADCC_CHARC(5), ADCB_CHARB(5), 
  1980 ;; Return value:  Size  Location     Type
  1981 ;;                  1    wreg      PTR unsigned char 
  1982 ;; Registers used:
  1983 ;;		wreg, fsr0l, fsr0h, status,2, status,0
  1984 ;; Tracked objects:
  1985 ;;		On entry : 0/0
  1986 ;;		On exit  : 0/0
  1987 ;;		Unchanged: 0/0
  1988 ;; Data sizes:     COMMON   BANK0   BANK1   BANK3   BANK2
  1989 ;;      Params:         1       0       0       0       0
  1990 ;;      Locals:         2       0       0       0       0
  1991 ;;      Temps:          1       0       0       0       0
  1992 ;;      Totals:         4       0       0       0       0
  1993 ;;Total ram usage:        4 bytes
  1994 ;; Hardware stack levels used:    1
  1995 ;; This function calls:
  1996 ;;		Nothing
  1997 ;; This function is called by:
  1998 ;;		_ADC
  1999 ;; This function uses a non-reentrant model
  2000 ;;
  2001                           
  2002                           
  2003                           ;psect for function _strcat
  2004  0C60                     _strcat:	
  2005                           
  2006                           ;incstack = 0
  2007                           ; Regs used in _strcat: [wreg-fsr0h+status,2+status,0]
  2008                           ;strcat@to stored from wreg
  2009  0C60  00F3               	movwf	strcat@to
  2010  0C61                     l1676:	
  2011  0C61  0873               	movf	strcat@to,w
  2012  0C62  00F1               	movwf	??_strcat
  2013  0C63  0871               	movf	??_strcat,w
  2014  0C64  00F2               	movwf	strcat@cp
  2015  0C65  2C6A               	goto	l1680
  2016  0C66                     l1678:	
  2017  0C66  3001               	movlw	1
  2018  0C67  00F1               	movwf	??_strcat
  2019  0C68  0871               	movf	??_strcat,w
  2020  0C69  07F2               	addwf	strcat@cp,f
  2021  0C6A                     l1680:	
  2022  0C6A  0872               	movf	strcat@cp,w
  2023  0C6B  0084               	movwf	4
  2024  0C6C  1383               	bcf	3,7	;select IRP bank0
  2025  0C6D  0800               	movf	0,w
  2026  0C6E  1D03               	btfss	3,2
  2027  0C6F  2C71               	goto	u1591
  2028  0C70  2C72               	goto	u1590
  2029  0C71                     u1591:	
  2030  0C71  2C66               	goto	l1678
  2031  0C72                     u1590:	
  2032  0C72  2C7B               	goto	l1684
  2033  0C73                     l1682:	
  2034  0C73  3001               	movlw	1
  2035  0C74  00F1               	movwf	??_strcat
  2036  0C75  0871               	movf	??_strcat,w
  2037  0C76  07F2               	addwf	strcat@cp,f
  2038  0C77  3001               	movlw	1
  2039  0C78  00F1               	movwf	??_strcat
  2040  0C79  0871               	movf	??_strcat,w
  2041  0C7A  07F0               	addwf	strcat@from,f
  2042  0C7B                     l1684:	
  2043  0C7B  0870               	movf	strcat@from,w
  2044  0C7C  0084               	movwf	4
  2045  0C7D  0800               	movf	0,w
  2046  0C7E  00F1               	movwf	??_strcat
  2047  0C7F  0872               	movf	strcat@cp,w
  2048  0C80  0084               	movwf	4
  2049  0C81  0871               	movf	??_strcat,w
  2050  0C82  0080               	movwf	0
  2051  0C83  0800               	movf	0,w
  2052  0C84  1D03               	btfss	3,2
  2053  0C85  2C87               	goto	u1601
  2054  0C86  2C88               	goto	u1600
  2055  0C87                     u1601:	
  2056  0C87  2C73               	goto	l1682
  2057  0C88                     u1600:	
  2058  0C88                     l708:	
  2059  0C88  0008               	return
  2060  0C89                     __end_of_strcat:	
  2061                           
  2062                           	psect	text5
  2063  0BEA                     __ptext5:	
  2064 ;; *************** function _lcd_msg *****************
  2065 ;; Defined at:
  2066 ;;		line 52 in file "LCD.c"
  2067 ;; Parameters:    Size  Location     Type
  2068 ;;  c               2    3[COMMON] PTR unsigned char 
  2069 ;;		 -> STR_5(2), STR_4(2), ADCAC_CHARC(5), ADCC_CHARC(5), 
  2070 ;;		 -> STR_1(14), ARDUINO(5), 
  2071 ;; Auto vars:     Size  Location     Type
  2072 ;;		None
  2073 ;; Return value:  Size  Location     Type
  2074 ;;                  1    wreg      void 
  2075 ;; Registers used:
  2076 ;;		wreg, fsr0l, fsr0h, status,2, status,0, btemp+1, pclath, cstack
  2077 ;; Tracked objects:
  2078 ;;		On entry : 0/0
  2079 ;;		On exit  : 0/0
  2080 ;;		Unchanged: 0/0
  2081 ;; Data sizes:     COMMON   BANK0   BANK1   BANK3   BANK2
  2082 ;;      Params:         2       0       0       0       0
  2083 ;;      Locals:         0       0       0       0       0
  2084 ;;      Temps:          0       0       0       0       0
  2085 ;;      Totals:         2       0       0       0       0
  2086 ;;Total ram usage:        2 bytes
  2087 ;; Hardware stack levels used:    1
  2088 ;; Hardware stack levels required when called:    2
  2089 ;; This function calls:
  2090 ;;		_lcd_dwr
  2091 ;; This function is called by:
  2092 ;;		_ADC
  2093 ;; This function uses a non-reentrant model
  2094 ;;
  2095                           
  2096                           
  2097                           ;psect for function _lcd_msg
  2098  0BEA                     _lcd_msg:	
  2099  0BEA                     l1654:	
  2100                           ;incstack = 0
  2101                           ; Regs used in _lcd_msg: [wreg-fsr0h+status,2+status,0+btemp+1+pclath+cstack]
  2102                           
  2103                           
  2104                           ;LCD.c: 53:     while(*c != 0)
  2105  0BEA  2BFF               	goto	l1660
  2106  0BEB                     l1656:	
  2107                           
  2108                           ;LCD.c: 54:         lcd_dwr(*c++);
  2109  0BEB  0874               	movf	lcd_msg@c+1,w
  2110  0BEC  00FF               	movwf	btemp+1
  2111  0BED  0873               	movf	lcd_msg@c,w
  2112  0BEE  0084               	movwf	4
  2113  0BEF  120A  158A  2000  120A  158A  	fcall	stringtab
  2114  0BF4  120A  118A  2004  120A  158A  	fcall	_lcd_dwr
  2115  0BF9                     l1658:	
  2116  0BF9  3001               	movlw	1
  2117  0BFA  07F3               	addwf	lcd_msg@c,f
  2118  0BFB  1803               	skipnc
  2119  0BFC  0AF4               	incf	lcd_msg@c+1,f
  2120  0BFD  3000               	movlw	0
  2121  0BFE  07F4               	addwf	lcd_msg@c+1,f
  2122  0BFF                     l1660:	
  2123                           
  2124                           ;LCD.c: 53:     while(*c != 0)
  2125  0BFF  0874               	movf	lcd_msg@c+1,w
  2126  0C00  1283               	bcf	3,5	;RP0=0, select bank0
  2127  0C01  1303               	bcf	3,6	;RP1=0, select bank0
  2128  0C02  00FF               	movwf	btemp+1
  2129  0C03  0873               	movf	lcd_msg@c,w
  2130  0C04  0084               	movwf	4
  2131  0C05  120A  158A  2000  120A  158A  	fcall	stringtab
  2132  0C0A  3A00               	xorlw	0
  2133  0C0B  1D03               	skipz
  2134  0C0C  2C0E               	goto	u1571
  2135  0C0D  2C0F               	goto	u1570
  2136  0C0E                     u1571:	
  2137  0C0E  2BEB               	goto	l1656
  2138  0C0F                     u1570:	
  2139  0C0F                     l72:	
  2140  0C0F  0008               	return
  2141  0C10                     __end_of_lcd_msg:	
  2142                           
  2143                           	psect	text6
  2144  0004                     __ptext6:	
  2145 ;; *************** function _lcd_dwr *****************
  2146 ;; Defined at:
  2147 ;;		line 44 in file "LCD.c"
  2148 ;; Parameters:    Size  Location     Type
  2149 ;;  x               1    wreg     unsigned char 
  2150 ;; Auto vars:     Size  Location     Type
  2151 ;;  x               1    2[COMMON] unsigned char 
  2152 ;; Return value:  Size  Location     Type
  2153 ;;                  1    wreg      void 
  2154 ;; Registers used:
  2155 ;;		wreg, status,2, status,0, pclath, cstack
  2156 ;; Tracked objects:
  2157 ;;		On entry : 0/0
  2158 ;;		On exit  : 0/0
  2159 ;;		Unchanged: 0/0
  2160 ;; Data sizes:     COMMON   BANK0   BANK1   BANK3   BANK2
  2161 ;;      Params:         0       0       0       0       0
  2162 ;;      Locals:         1       0       0       0       0
  2163 ;;      Temps:          0       0       0       0       0
  2164 ;;      Totals:         1       0       0       0       0
  2165 ;;Total ram usage:        1 bytes
  2166 ;; Hardware stack levels used:    1
  2167 ;; Hardware stack levels required when called:    1
  2168 ;; This function calls:
  2169 ;;		_lcd_lat
  2170 ;;		_lcd_ready
  2171 ;; This function is called by:
  2172 ;;		_lcd_msg
  2173 ;; This function uses a non-reentrant model
  2174 ;;
  2175                           
  2176                           
  2177                           ;psect for function _lcd_dwr
  2178  0004                     _lcd_dwr:	
  2179                           
  2180                           ;incstack = 0
  2181                           ; Regs used in _lcd_dwr: [wreg+status,2+status,0+pclath+cstack]
  2182                           ;lcd_dwr@x stored from wreg
  2183  0004  00F2               	movwf	lcd_dwr@x
  2184  0005                     l1590:	
  2185                           
  2186                           ;LCD.c: 45:     lcd_ready();
  2187  0005  120A  158A  2437  120A  118A  	fcall	_lcd_ready
  2188  000A                     l1592:	
  2189                           
  2190                           ;LCD.c: 46:     PORTB = x;
  2191  000A  0872               	movf	lcd_dwr@x,w
  2192  000B  1283               	bcf	3,5	;RP0=0, select bank0
  2193  000C  1303               	bcf	3,6	;RP1=0, select bank0
  2194  000D  0086               	movwf	6	;volatile
  2195  000E                     l1594:	
  2196                           
  2197                           ;LCD.c: 47:     RC4 = 1;
  2198  000E  1607               	bsf	7,4	;volatile
  2199  000F                     l1596:	
  2200                           
  2201                           ;LCD.c: 48:     RC5 = 0;
  2202  000F  1287               	bcf	7,5	;volatile
  2203  0010                     l1598:	
  2204                           
  2205                           ;LCD.c: 49:     lcd_lat();
  2206  0010  120A  158A  2363  120A  118A  	fcall	_lcd_lat
  2207  0015                     l66:	
  2208  0015  0008               	return
  2209  0016                     __end_of_lcd_dwr:	
  2210                           
  2211                           	psect	text7
  2212  0B72                     __ptext7:	
  2213 ;; *************** function _lcd_cmd *****************
  2214 ;; Defined at:
  2215 ;;		line 14 in file "LCD.c"
  2216 ;; Parameters:    Size  Location     Type
  2217 ;;  x               1    wreg     unsigned char 
  2218 ;; Auto vars:     Size  Location     Type
  2219 ;;  x               1    2[COMMON] unsigned char 
  2220 ;; Return value:  Size  Location     Type
  2221 ;;                  1    wreg      void 
  2222 ;; Registers used:
  2223 ;;		wreg, status,2, status,0, pclath, cstack
  2224 ;; Tracked objects:
  2225 ;;		On entry : 0/0
  2226 ;;		On exit  : 0/0
  2227 ;;		Unchanged: 0/0
  2228 ;; Data sizes:     COMMON   BANK0   BANK1   BANK3   BANK2
  2229 ;;      Params:         0       0       0       0       0
  2230 ;;      Locals:         1       0       0       0       0
  2231 ;;      Temps:          0       0       0       0       0
  2232 ;;      Totals:         1       0       0       0       0
  2233 ;;Total ram usage:        1 bytes
  2234 ;; Hardware stack levels used:    1
  2235 ;; Hardware stack levels required when called:    1
  2236 ;; This function calls:
  2237 ;;		_lcd_lat
  2238 ;;		_lcd_ready
  2239 ;; This function is called by:
  2240 ;;		_inicializacion
  2241 ;;		_ADC
  2242 ;; This function uses a non-reentrant model
  2243 ;;
  2244                           
  2245                           
  2246                           ;psect for function _lcd_cmd
  2247  0B72                     _lcd_cmd:	
  2248                           
  2249                           ;incstack = 0
  2250                           ; Regs used in _lcd_cmd: [wreg+status,2+status,0+pclath+cstack]
  2251                           ;lcd_cmd@x stored from wreg
  2252  0B72  00F2               	movwf	lcd_cmd@x
  2253  0B73                     l1644:	
  2254                           
  2255                           ;LCD.c: 15:     lcd_ready();
  2256  0B73  120A  158A  2437  120A  158A  	fcall	_lcd_ready
  2257  0B78                     l1646:	
  2258                           
  2259                           ;LCD.c: 16:     PORTB = x;
  2260  0B78  0872               	movf	lcd_cmd@x,w
  2261  0B79  1283               	bcf	3,5	;RP0=0, select bank0
  2262  0B7A  1303               	bcf	3,6	;RP1=0, select bank0
  2263  0B7B  0086               	movwf	6	;volatile
  2264  0B7C                     l1648:	
  2265                           
  2266                           ;LCD.c: 17:     RC4 = 0;
  2267  0B7C  1207               	bcf	7,4	;volatile
  2268  0B7D                     l1650:	
  2269                           
  2270                           ;LCD.c: 18:     RC5 = 0;
  2271  0B7D  1287               	bcf	7,5	;volatile
  2272  0B7E                     l1652:	
  2273                           
  2274                           ;LCD.c: 19:     lcd_lat();
  2275  0B7E  120A  158A  2363  120A  158A  	fcall	_lcd_lat
  2276  0B83                     l55:	
  2277  0B83  0008               	return
  2278  0B84                     __end_of_lcd_cmd:	
  2279                           
  2280                           	psect	text8
  2281  0C37                     __ptext8:	
  2282 ;; *************** function _lcd_ready *****************
  2283 ;; Defined at:
  2284 ;;		line 27 in file "LCD.c"
  2285 ;; Parameters:    Size  Location     Type
  2286 ;;		None
  2287 ;; Auto vars:     Size  Location     Type
  2288 ;;		None
  2289 ;; Return value:  Size  Location     Type
  2290 ;;                  1    wreg      void 
  2291 ;; Registers used:
  2292 ;;		wreg, status,2, status,0
  2293 ;; Tracked objects:
  2294 ;;		On entry : 0/0
  2295 ;;		On exit  : 0/0
  2296 ;;		Unchanged: 0/0
  2297 ;; Data sizes:     COMMON   BANK0   BANK1   BANK3   BANK2
  2298 ;;      Params:         0       0       0       0       0
  2299 ;;      Locals:         0       0       0       0       0
  2300 ;;      Temps:          2       0       0       0       0
  2301 ;;      Totals:         2       0       0       0       0
  2302 ;;Total ram usage:        2 bytes
  2303 ;; Hardware stack levels used:    1
  2304 ;; This function calls:
  2305 ;;		Nothing
  2306 ;; This function is called by:
  2307 ;;		_lcd_cmd
  2308 ;;		_lcd_dwr
  2309 ;; This function uses a non-reentrant model
  2310 ;;
  2311                           
  2312                           
  2313                           ;psect for function _lcd_ready
  2314  0C37                     _lcd_ready:	
  2315  0C37                     l1516:	
  2316                           ;incstack = 0
  2317                           ; Regs used in _lcd_ready: [wreg+status,2+status,0]
  2318                           
  2319                           
  2320                           ;LCD.c: 28:     PORTB = 0xFF;
  2321  0C37  30FF               	movlw	255
  2322  0C38  1283               	bcf	3,5	;RP0=0, select bank0
  2323  0C39  1303               	bcf	3,6	;RP1=0, select bank0
  2324  0C3A  0086               	movwf	6	;volatile
  2325  0C3B                     l1518:	
  2326                           
  2327                           ;LCD.c: 29:     PORTB &= 0x80;
  2328  0C3B  3080               	movlw	128
  2329  0C3C  00F0               	movwf	??_lcd_ready
  2330  0C3D  0870               	movf	??_lcd_ready,w
  2331  0C3E  0586               	andwf	6,f	;volatile
  2332  0C3F                     l1520:	
  2333                           
  2334                           ;LCD.c: 30:     RC4 = 0;
  2335  0C3F  1207               	bcf	7,4	;volatile
  2336  0C40                     l1522:	
  2337                           
  2338                           ;LCD.c: 31:     RC5 = 1;
  2339  0C40  1687               	bsf	7,5	;volatile
  2340  0C41                     l1524:	
  2341                           
  2342                           ;LCD.c: 32:     RC6 = 0;
  2343  0C41  1307               	bcf	7,6	;volatile
  2344  0C42                     l1526:	
  2345                           
  2346                           ;LCD.c: 33:     _delay((unsigned long)((30)*(4000000/4000.0)));
  2347  0C42  3027               	movlw	39
  2348  0C43  00F1               	movwf	??_lcd_ready+1
  2349  0C44  30F5               	movlw	245
  2350  0C45  00F0               	movwf	??_lcd_ready
  2351  0C46                     u2757:	
  2352  0C46  0BF0               	decfsz	??_lcd_ready,f
  2353  0C47  2C46               	goto	u2757
  2354  0C48  0BF1               	decfsz	??_lcd_ready+1,f
  2355  0C49  2C46               	goto	u2757
  2356  0C4A                     l1528:	
  2357                           
  2358                           ;LCD.c: 34:     RC6 = 1;
  2359  0C4A  1283               	bcf	3,5	;RP0=0, select bank0
  2360  0C4B  1303               	bcf	3,6	;RP1=0, select bank0
  2361  0C4C  1707               	bsf	7,6	;volatile
  2362                           
  2363                           ;LCD.c: 35:     if (PORTB == 0x80){
  2364  0C4D  3080               	movlw	128
  2365  0C4E  0606               	xorwf	6,w	;volatile
  2366  0C4F  1D03               	btfss	3,2
  2367  0C50  2C52               	goto	u1371
  2368  0C51  2C53               	goto	u1370
  2369  0C52                     u1371:	
  2370  0C52  2C5F               	goto	l63
  2371  0C53                     u1370:	
  2372  0C53                     l1530:	
  2373                           
  2374                           ;LCD.c: 36:     RC6 = 0;
  2375  0C53  1307               	bcf	7,6	;volatile
  2376  0C54                     l1532:	
  2377                           
  2378                           ;LCD.c: 37:     _delay((unsigned long)((30)*(4000000/4000.0)));
  2379  0C54  3027               	movlw	39
  2380  0C55  00F1               	movwf	??_lcd_ready+1
  2381  0C56  30F5               	movlw	245
  2382  0C57  00F0               	movwf	??_lcd_ready
  2383  0C58                     u2767:	
  2384  0C58  0BF0               	decfsz	??_lcd_ready,f
  2385  0C59  2C58               	goto	u2767
  2386  0C5A  0BF1               	decfsz	??_lcd_ready+1,f
  2387  0C5B  2C58               	goto	u2767
  2388  0C5C                     l1534:	
  2389                           
  2390                           ;LCD.c: 38:     RC6 = 1;
  2391  0C5C  1283               	bcf	3,5	;RP0=0, select bank0
  2392  0C5D  1303               	bcf	3,6	;RP1=0, select bank0
  2393  0C5E  1707               	bsf	7,6	;volatile
  2394  0C5F                     l63:	
  2395                           ;LCD.c: 39:     }
  2396                           
  2397  0C5F  0008               	return
  2398  0C60                     __end_of_lcd_ready:	
  2399                           
  2400                           	psect	text9
  2401  0B63                     __ptext9:	
  2402 ;; *************** function _lcd_lat *****************
  2403 ;; Defined at:
  2404 ;;		line 22 in file "LCD.c"
  2405 ;; Parameters:    Size  Location     Type
  2406 ;;		None
  2407 ;; Auto vars:     Size  Location     Type
  2408 ;;		None
  2409 ;; Return value:  Size  Location     Type
  2410 ;;                  1    wreg      void 
  2411 ;; Registers used:
  2412 ;;		wreg
  2413 ;; Tracked objects:
  2414 ;;		On entry : 0/0
  2415 ;;		On exit  : 0/0
  2416 ;;		Unchanged: 0/0
  2417 ;; Data sizes:     COMMON   BANK0   BANK1   BANK3   BANK2
  2418 ;;      Params:         0       0       0       0       0
  2419 ;;      Locals:         0       0       0       0       0
  2420 ;;      Temps:          2       0       0       0       0
  2421 ;;      Totals:         2       0       0       0       0
  2422 ;;Total ram usage:        2 bytes
  2423 ;; Hardware stack levels used:    1
  2424 ;; This function calls:
  2425 ;;		Nothing
  2426 ;; This function is called by:
  2427 ;;		_lcd_cmd
  2428 ;;		_lcd_dwr
  2429 ;; This function uses a non-reentrant model
  2430 ;;
  2431                           
  2432                           
  2433                           ;psect for function _lcd_lat
  2434  0B63                     _lcd_lat:	
  2435  0B63                     l1536:	
  2436                           ;incstack = 0
  2437                           ; Regs used in _lcd_lat: [wreg]
  2438                           
  2439                           
  2440                           ;LCD.c: 23:     RC6 = 1;
  2441  0B63  1283               	bcf	3,5	;RP0=0, select bank0
  2442  0B64  1303               	bcf	3,6	;RP1=0, select bank0
  2443  0B65  1707               	bsf	7,6	;volatile
  2444  0B66                     l1538:	
  2445                           
  2446                           ;LCD.c: 24:    _delay((unsigned long)((30)*(4000000/4000.0)));
  2447  0B66  3027               	movlw	39
  2448  0B67  00F1               	movwf	??_lcd_lat+1
  2449  0B68  30F5               	movlw	245
  2450  0B69  00F0               	movwf	??_lcd_lat
  2451  0B6A                     u2777:	
  2452  0B6A  0BF0               	decfsz	??_lcd_lat,f
  2453  0B6B  2B6A               	goto	u2777
  2454  0B6C  0BF1               	decfsz	??_lcd_lat+1,f
  2455  0B6D  2B6A               	goto	u2777
  2456  0B6E                     l1540:	
  2457                           
  2458                           ;LCD.c: 25:    RC6 = 0;
  2459  0B6E  1283               	bcf	3,5	;RP0=0, select bank0
  2460  0B6F  1303               	bcf	3,6	;RP1=0, select bank0
  2461  0B70  1307               	bcf	7,6	;volatile
  2462  0B71                     l58:	
  2463  0B71  0008               	return
  2464  0B72                     __end_of_lcd_lat:	
  2465                           
  2466                           	psect	text10
  2467  0BC4                     __ptext10:	
  2468 ;; *************** function _itoa *****************
  2469 ;; Defined at:
  2470 ;;		line 4 in file "C:\Program Files (x86)\Microchip\xc8\v2.10\pic\sources\c90\common\itoa.c"
  2471 ;; Parameters:    Size  Location     Type
  2472 ;;  buf             1    wreg     PTR unsigned char 
  2473 ;;		 -> ADCAC_CHARC(5), ADCAB_CHARB(5), ADCAA_CHARA(5), ADCC_CHARC(5), 
  2474 ;;		 -> ADCB_CHARB(5), ADCA_CHARA(5), ARDUINO(5), 
  2475 ;;  val             2    4[BANK0 ] int 
  2476 ;;  base            2    6[BANK0 ] int 
  2477 ;; Auto vars:     Size  Location     Type
  2478 ;;  buf             1    9[BANK0 ] PTR unsigned char 
  2479 ;;		 -> ADCAC_CHARC(5), ADCAB_CHARB(5), ADCAA_CHARA(5), ADCC_CHARC(5), 
  2480 ;;		 -> ADCB_CHARB(5), ADCA_CHARA(5), ARDUINO(5), 
  2481 ;;  cp              1    0        PTR unsigned char 
  2482 ;;		 -> ADCAC_CHARC(5), ADCAB_CHARB(5), ADCAA_CHARA(5), ADCC_CHARC(5), 
  2483 ;;		 -> ADCB_CHARB(5), ADCA_CHARA(5), ARDUINO(5), 
  2484 ;; Return value:  Size  Location     Type
  2485 ;;                  1    wreg      PTR unsigned char 
  2486 ;; Registers used:
  2487 ;;		wreg, fsr0l, fsr0h, status,2, status,0, pclath, cstack
  2488 ;; Tracked objects:
  2489 ;;		On entry : 0/0
  2490 ;;		On exit  : 0/0
  2491 ;;		Unchanged: 0/0
  2492 ;; Data sizes:     COMMON   BANK0   BANK1   BANK3   BANK2
  2493 ;;      Params:         0       4       0       0       0
  2494 ;;      Locals:         0       2       0       0       0
  2495 ;;      Temps:          1       0       0       0       0
  2496 ;;      Totals:         1       6       0       0       0
  2497 ;;Total ram usage:        7 bytes
  2498 ;; Hardware stack levels used:    1
  2499 ;; Hardware stack levels required when called:    2
  2500 ;; This function calls:
  2501 ;;		_utoa
  2502 ;; This function is called by:
  2503 ;;		_ADC
  2504 ;;		_PC
  2505 ;; This function uses a non-reentrant model
  2506 ;;
  2507                           
  2508                           
  2509                           ;psect for function _itoa
  2510  0BC4                     _itoa:	
  2511                           
  2512                           ;incstack = 0
  2513                           ; Regs used in _itoa: [wreg-fsr0h+status,2+status,0+pclath+cstack]
  2514                           ;itoa@buf stored from wreg
  2515  0BC4  1283               	bcf	3,5	;RP0=0, select bank0
  2516  0BC5  1303               	bcf	3,6	;RP1=0, select bank0
  2517  0BC6  00A9               	movwf	itoa@buf
  2518  0BC7                     l1662:	
  2519  0BC7                     l1664:	
  2520  0BC7  1FA5               	btfss	itoa@val+1,7
  2521  0BC8  2BCA               	goto	u1581
  2522  0BC9  2BCB               	goto	u1580
  2523  0BCA                     u1581:	
  2524  0BCA  2BDB               	goto	l1672
  2525  0BCB                     u1580:	
  2526  0BCB                     l1666:	
  2527  0BCB  302D               	movlw	45
  2528  0BCC  00FD               	movwf	??_itoa
  2529  0BCD  0829               	movf	itoa@buf,w
  2530  0BCE  0084               	movwf	4
  2531  0BCF  087D               	movf	??_itoa,w
  2532  0BD0  1383               	bcf	3,7	;select IRP bank0
  2533  0BD1  0080               	movwf	0
  2534  0BD2                     l1668:	
  2535  0BD2  3001               	movlw	1
  2536  0BD3  00FD               	movwf	??_itoa
  2537  0BD4  087D               	movf	??_itoa,w
  2538  0BD5  07A9               	addwf	itoa@buf,f
  2539  0BD6                     l1670:	
  2540  0BD6  09A4               	comf	itoa@val,f
  2541  0BD7  09A5               	comf	itoa@val+1,f
  2542  0BD8  0AA4               	incf	itoa@val,f
  2543  0BD9  1903               	skipnz
  2544  0BDA  0AA5               	incf	itoa@val+1,f
  2545  0BDB                     l1672:	
  2546  0BDB  0825               	movf	itoa@val+1,w
  2547  0BDC  00F9               	movwf	utoa@val+1
  2548  0BDD  0824               	movf	itoa@val,w
  2549  0BDE  00F8               	movwf	utoa@val
  2550  0BDF  0827               	movf	itoa@base+1,w
  2551  0BE0  00FB               	movwf	utoa@base+1
  2552  0BE1  0826               	movf	itoa@base,w
  2553  0BE2  00FA               	movwf	utoa@base
  2554  0BE3  0829               	movf	itoa@buf,w
  2555  0BE4  120A  158A  25B1  120A  158A  	fcall	_utoa
  2556  0BE9                     l691:	
  2557  0BE9  0008               	return
  2558  0BEA                     __end_of_itoa:	
  2559                           
  2560                           	psect	text11
  2561  0DB1                     __ptext11:	
  2562 ;; *************** function _utoa *****************
  2563 ;; Defined at:
  2564 ;;		line 17 in file "C:\Program Files (x86)\Microchip\xc8\v2.10\pic\sources\c90\common\itoa.c"
  2565 ;; Parameters:    Size  Location     Type
  2566 ;;  buf             1    wreg     PTR unsigned char 
  2567 ;;		 -> ADCAC_CHARC(5), ADCAB_CHARB(5), ADCAA_CHARA(5), ADCC_CHARC(5), 
  2568 ;;		 -> ADCB_CHARB(5), ADCA_CHARA(5), ARDUINO(5), 
  2569 ;;  val             2    8[COMMON] unsigned int 
  2570 ;;  base            2   10[COMMON] int 
  2571 ;; Auto vars:     Size  Location     Type
  2572 ;;  buf             1    3[BANK0 ] PTR unsigned char 
  2573 ;;		 -> ADCAC_CHARC(5), ADCAB_CHARB(5), ADCAA_CHARA(5), ADCC_CHARC(5), 
  2574 ;;		 -> ADCB_CHARB(5), ADCA_CHARA(5), ARDUINO(5), 
  2575 ;;  v               2    0[BANK0 ] unsigned int 
  2576 ;;  c               1    2[BANK0 ] unsigned char 
  2577 ;; Return value:  Size  Location     Type
  2578 ;;                  1    wreg      PTR unsigned char 
  2579 ;; Registers used:
  2580 ;;		wreg, fsr0l, fsr0h, status,2, status,0, pclath, cstack
  2581 ;; Tracked objects:
  2582 ;;		On entry : 0/0
  2583 ;;		On exit  : 0/0
  2584 ;;		Unchanged: 0/0
  2585 ;; Data sizes:     COMMON   BANK0   BANK1   BANK3   BANK2
  2586 ;;      Params:         4       0       0       0       0
  2587 ;;      Locals:         0       4       0       0       0
  2588 ;;      Temps:          1       0       0       0       0
  2589 ;;      Totals:         5       4       0       0       0
  2590 ;;Total ram usage:        9 bytes
  2591 ;; Hardware stack levels used:    1
  2592 ;; Hardware stack levels required when called:    1
  2593 ;; This function calls:
  2594 ;;		___lwdiv
  2595 ;;		___lwmod
  2596 ;; This function is called by:
  2597 ;;		_itoa
  2598 ;; This function uses a non-reentrant model
  2599 ;;
  2600                           
  2601                           
  2602                           ;psect for function _utoa
  2603  0DB1                     _utoa:	
  2604                           
  2605                           ;incstack = 0
  2606                           ; Regs used in _utoa: [wreg-fsr0h+status,2+status,0+pclath+cstack]
  2607                           ;utoa@buf stored from wreg
  2608  0DB1  1283               	bcf	3,5	;RP0=0, select bank0
  2609  0DB2  1303               	bcf	3,6	;RP1=0, select bank0
  2610  0DB3  00A3               	movwf	utoa@buf
  2611  0DB4                     l1614:	
  2612  0DB4  0879               	movf	utoa@val+1,w
  2613  0DB5  00A1               	movwf	utoa@v+1
  2614  0DB6  0878               	movf	utoa@val,w
  2615  0DB7  00A0               	movwf	utoa@v
  2616  0DB8                     l1616:	
  2617  0DB8  087B               	movf	utoa@base+1,w
  2618  0DB9  00F1               	movwf	___lwdiv@divisor+1
  2619  0DBA  087A               	movf	utoa@base,w
  2620  0DBB  00F0               	movwf	___lwdiv@divisor
  2621  0DBC  0821               	movf	utoa@v+1,w
  2622  0DBD  00F3               	movwf	___lwdiv@dividend+1
  2623  0DBE  0820               	movf	utoa@v,w
  2624  0DBF  00F2               	movwf	___lwdiv@dividend
  2625  0DC0  120A  118A  2016  120A  158A  	fcall	___lwdiv
  2626  0DC5  0871               	movf	?___lwdiv+1,w
  2627  0DC6  1283               	bcf	3,5	;RP0=0, select bank0
  2628  0DC7  1303               	bcf	3,6	;RP1=0, select bank0
  2629  0DC8  00A1               	movwf	utoa@v+1
  2630  0DC9  0870               	movf	?___lwdiv,w
  2631  0DCA  00A0               	movwf	utoa@v
  2632  0DCB                     l1618:	
  2633  0DCB  3001               	movlw	1
  2634  0DCC  00FC               	movwf	??_utoa
  2635  0DCD  087C               	movf	??_utoa,w
  2636  0DCE  07A3               	addwf	utoa@buf,f
  2637  0DCF                     l1620:	
  2638  0DCF  0820               	movf	utoa@v,w
  2639  0DD0  0421               	iorwf	utoa@v+1,w
  2640  0DD1  1D03               	btfss	3,2
  2641  0DD2  2DD4               	goto	u1541
  2642  0DD3  2DD5               	goto	u1540
  2643  0DD4                     u1541:	
  2644  0DD4  2DB8               	goto	l1616
  2645  0DD5                     u1540:	
  2646  0DD5                     l1622:	
  2647  0DD5  0823               	movf	utoa@buf,w
  2648  0DD6  0084               	movwf	4
  2649  0DD7  1383               	bcf	3,7	;select IRP bank0
  2650  0DD8  0180               	clrf	0
  2651  0DD9                     l1624:	
  2652  0DD9  3001               	movlw	1
  2653  0DDA  02A3               	subwf	utoa@buf,f
  2654  0DDB                     l1626:	
  2655  0DDB  087B               	movf	utoa@base+1,w
  2656  0DDC  00F1               	movwf	___lwmod@divisor+1
  2657  0DDD  087A               	movf	utoa@base,w
  2658  0DDE  00F0               	movwf	___lwmod@divisor
  2659  0DDF  0879               	movf	utoa@val+1,w
  2660  0DE0  00F3               	movwf	___lwmod@dividend+1
  2661  0DE1  0878               	movf	utoa@val,w
  2662  0DE2  00F2               	movwf	___lwmod@dividend
  2663  0DE3  120A  158A  24B5  120A  158A  	fcall	___lwmod
  2664  0DE8  0870               	movf	?___lwmod,w
  2665  0DE9  00FC               	movwf	??_utoa
  2666  0DEA  087C               	movf	??_utoa,w
  2667  0DEB  1283               	bcf	3,5	;RP0=0, select bank0
  2668  0DEC  1303               	bcf	3,6	;RP1=0, select bank0
  2669  0DED  00A2               	movwf	utoa@c
  2670  0DEE                     l1628:	
  2671  0DEE  087B               	movf	utoa@base+1,w
  2672  0DEF  00F1               	movwf	___lwdiv@divisor+1
  2673  0DF0  087A               	movf	utoa@base,w
  2674  0DF1  00F0               	movwf	___lwdiv@divisor
  2675  0DF2  0879               	movf	utoa@val+1,w
  2676  0DF3  00F3               	movwf	___lwdiv@dividend+1
  2677  0DF4  0878               	movf	utoa@val,w
  2678  0DF5  00F2               	movwf	___lwdiv@dividend
  2679  0DF6  120A  118A  2016  120A  158A  	fcall	___lwdiv
  2680  0DFB  0871               	movf	?___lwdiv+1,w
  2681  0DFC  00F9               	movwf	utoa@val+1
  2682  0DFD  0870               	movf	?___lwdiv,w
  2683  0DFE  00F8               	movwf	utoa@val
  2684  0DFF                     l1630:	
  2685  0DFF  300A               	movlw	10
  2686  0E00  1283               	bcf	3,5	;RP0=0, select bank0
  2687  0E01  1303               	bcf	3,6	;RP1=0, select bank0
  2688  0E02  0222               	subwf	utoa@c,w
  2689  0E03  1C03               	skipc
  2690  0E04  2E06               	goto	u1551
  2691  0E05  2E07               	goto	u1550
  2692  0E06                     u1551:	
  2693  0E06  2E0B               	goto	l697
  2694  0E07                     u1550:	
  2695  0E07                     l1632:	
  2696  0E07  3007               	movlw	7
  2697  0E08  00FC               	movwf	??_utoa
  2698  0E09  087C               	movf	??_utoa,w
  2699  0E0A  07A2               	addwf	utoa@c,f
  2700  0E0B                     l697:	
  2701  0E0B  3030               	movlw	48
  2702  0E0C  00FC               	movwf	??_utoa
  2703  0E0D  087C               	movf	??_utoa,w
  2704  0E0E  07A2               	addwf	utoa@c,f
  2705  0E0F                     l1634:	
  2706  0E0F  0822               	movf	utoa@c,w
  2707  0E10  00FC               	movwf	??_utoa
  2708  0E11  0823               	movf	utoa@buf,w
  2709  0E12  0084               	movwf	4
  2710  0E13  087C               	movf	??_utoa,w
  2711  0E14  1383               	bcf	3,7	;select IRP bank0
  2712  0E15  0080               	movwf	0
  2713  0E16                     l1636:	
  2714  0E16  3001               	movlw	1
  2715  0E17  02A3               	subwf	utoa@buf,f
  2716  0E18                     l1638:	
  2717  0E18  0878               	movf	utoa@val,w
  2718  0E19  0479               	iorwf	utoa@val+1,w
  2719  0E1A  1D03               	btfss	3,2
  2720  0E1B  2E1D               	goto	u1561
  2721  0E1C  2E1E               	goto	u1560
  2722  0E1D                     u1561:	
  2723  0E1D  2DDB               	goto	l1626
  2724  0E1E                     u1560:	
  2725  0E1E                     l1640:	
  2726                           
  2727                           ;	Return value of _utoa is never used
  2728  0E1E  3001               	movlw	1
  2729  0E1F  00FC               	movwf	??_utoa
  2730  0E20  087C               	movf	??_utoa,w
  2731  0E21  07A3               	addwf	utoa@buf,f
  2732  0E22                     l699:	
  2733  0E22  0008               	return
  2734  0E23                     __end_of_utoa:	
  2735                           
  2736                           	psect	text12
  2737  0CB5                     __ptext12:	
  2738 ;; *************** function ___lwmod *****************
  2739 ;; Defined at:
  2740 ;;		line 5 in file "C:\Program Files (x86)\Microchip\xc8\v2.10\pic\sources\c90\common\lwmod.c"
  2741 ;; Parameters:    Size  Location     Type
  2742 ;;  divisor         2    0[COMMON] unsigned int 
  2743 ;;  dividend        2    2[COMMON] unsigned int 
  2744 ;; Auto vars:     Size  Location     Type
  2745 ;;  counter         1    5[COMMON] unsigned char 
  2746 ;; Return value:  Size  Location     Type
  2747 ;;                  2    0[COMMON] unsigned int 
  2748 ;; Registers used:
  2749 ;;		wreg, status,2, status,0
  2750 ;; Tracked objects:
  2751 ;;		On entry : 0/0
  2752 ;;		On exit  : 0/0
  2753 ;;		Unchanged: 0/0
  2754 ;; Data sizes:     COMMON   BANK0   BANK1   BANK3   BANK2
  2755 ;;      Params:         4       0       0       0       0
  2756 ;;      Locals:         1       0       0       0       0
  2757 ;;      Temps:          1       0       0       0       0
  2758 ;;      Totals:         6       0       0       0       0
  2759 ;;Total ram usage:        6 bytes
  2760 ;; Hardware stack levels used:    1
  2761 ;; This function calls:
  2762 ;;		Nothing
  2763 ;; This function is called by:
  2764 ;;		_utoa
  2765 ;; This function uses a non-reentrant model
  2766 ;;
  2767                           
  2768                           
  2769                           ;psect for function ___lwmod
  2770  0CB5                     ___lwmod:	
  2771  0CB5                     l1568:	
  2772                           ;incstack = 0
  2773                           ; Regs used in ___lwmod: [wreg+status,2+status,0]
  2774                           
  2775  0CB5  0870               	movf	___lwmod@divisor,w
  2776  0CB6  0471               	iorwf	___lwmod@divisor+1,w
  2777  0CB7  1903               	btfsc	3,2
  2778  0CB8  2CBA               	goto	u1451
  2779  0CB9  2CBB               	goto	u1450
  2780  0CBA                     u1451:	
  2781  0CBA  2CEA               	goto	l1586
  2782  0CBB                     u1450:	
  2783  0CBB                     l1570:	
  2784  0CBB  01F5               	clrf	___lwmod@counter
  2785  0CBC  0AF5               	incf	___lwmod@counter,f
  2786  0CBD  2CC9               	goto	l1576
  2787  0CBE                     l1572:	
  2788  0CBE  3001               	movlw	1
  2789  0CBF                     u1465:	
  2790  0CBF  1003               	clrc
  2791  0CC0  0DF0               	rlf	___lwmod@divisor,f
  2792  0CC1  0DF1               	rlf	___lwmod@divisor+1,f
  2793  0CC2  3EFF               	addlw	-1
  2794  0CC3  1D03               	skipz
  2795  0CC4  2CBF               	goto	u1465
  2796  0CC5                     l1574:	
  2797  0CC5  3001               	movlw	1
  2798  0CC6  00F4               	movwf	??___lwmod
  2799  0CC7  0874               	movf	??___lwmod,w
  2800  0CC8  07F5               	addwf	___lwmod@counter,f
  2801  0CC9                     l1576:	
  2802  0CC9  1FF1               	btfss	___lwmod@divisor+1,7
  2803  0CCA  2CCC               	goto	u1471
  2804  0CCB  2CCD               	goto	u1470
  2805  0CCC                     u1471:	
  2806  0CCC  2CBE               	goto	l1572
  2807  0CCD                     u1470:	
  2808  0CCD                     l1578:	
  2809  0CCD  0871               	movf	___lwmod@divisor+1,w
  2810  0CCE  0273               	subwf	___lwmod@dividend+1,w
  2811  0CCF  1D03               	skipz
  2812  0CD0  2CD3               	goto	u1485
  2813  0CD1  0870               	movf	___lwmod@divisor,w
  2814  0CD2  0272               	subwf	___lwmod@dividend,w
  2815  0CD3                     u1485:	
  2816  0CD3  1C03               	skipc
  2817  0CD4  2CD6               	goto	u1481
  2818  0CD5  2CD7               	goto	u1480
  2819  0CD6                     u1481:	
  2820  0CD6  2CDD               	goto	l1582
  2821  0CD7                     u1480:	
  2822  0CD7                     l1580:	
  2823  0CD7  0870               	movf	___lwmod@divisor,w
  2824  0CD8  02F2               	subwf	___lwmod@dividend,f
  2825  0CD9  0871               	movf	___lwmod@divisor+1,w
  2826  0CDA  1C03               	skipc
  2827  0CDB  03F3               	decf	___lwmod@dividend+1,f
  2828  0CDC  02F3               	subwf	___lwmod@dividend+1,f
  2829  0CDD                     l1582:	
  2830  0CDD  3001               	movlw	1
  2831  0CDE                     u1495:	
  2832  0CDE  1003               	clrc
  2833  0CDF  0CF1               	rrf	___lwmod@divisor+1,f
  2834  0CE0  0CF0               	rrf	___lwmod@divisor,f
  2835  0CE1  3EFF               	addlw	-1
  2836  0CE2  1D03               	skipz
  2837  0CE3  2CDE               	goto	u1495
  2838  0CE4                     l1584:	
  2839  0CE4  3001               	movlw	1
  2840  0CE5  02F5               	subwf	___lwmod@counter,f
  2841  0CE6  1D03               	btfss	3,2
  2842  0CE7  2CE9               	goto	u1501
  2843  0CE8  2CEA               	goto	u1500
  2844  0CE9                     u1501:	
  2845  0CE9  2CCD               	goto	l1578
  2846  0CEA                     u1500:	
  2847  0CEA                     l1586:	
  2848  0CEA  0873               	movf	___lwmod@dividend+1,w
  2849  0CEB  00F1               	movwf	?___lwmod+1
  2850  0CEC  0872               	movf	___lwmod@dividend,w
  2851  0CED  00F0               	movwf	?___lwmod
  2852  0CEE                     l525:	
  2853  0CEE  0008               	return
  2854  0CEF                     __end_of___lwmod:	
  2855                           
  2856                           	psect	text13
  2857  0016                     __ptext13:	
  2858 ;; *************** function ___lwdiv *****************
  2859 ;; Defined at:
  2860 ;;		line 5 in file "C:\Program Files (x86)\Microchip\xc8\v2.10\pic\sources\c90\common\lwdiv.c"
  2861 ;; Parameters:    Size  Location     Type
  2862 ;;  divisor         2    0[COMMON] unsigned int 
  2863 ;;  dividend        2    2[COMMON] unsigned int 
  2864 ;; Auto vars:     Size  Location     Type
  2865 ;;  quotient        2    5[COMMON] unsigned int 
  2866 ;;  counter         1    7[COMMON] unsigned char 
  2867 ;; Return value:  Size  Location     Type
  2868 ;;                  2    0[COMMON] unsigned int 
  2869 ;; Registers used:
  2870 ;;		wreg, status,2, status,0
  2871 ;; Tracked objects:
  2872 ;;		On entry : 0/0
  2873 ;;		On exit  : 0/0
  2874 ;;		Unchanged: 0/0
  2875 ;; Data sizes:     COMMON   BANK0   BANK1   BANK3   BANK2
  2876 ;;      Params:         4       0       0       0       0
  2877 ;;      Locals:         3       0       0       0       0
  2878 ;;      Temps:          1       0       0       0       0
  2879 ;;      Totals:         8       0       0       0       0
  2880 ;;Total ram usage:        8 bytes
  2881 ;; Hardware stack levels used:    1
  2882 ;; This function calls:
  2883 ;;		Nothing
  2884 ;; This function is called by:
  2885 ;;		_utoa
  2886 ;; This function uses a non-reentrant model
  2887 ;;
  2888                           
  2889                           
  2890                           ;psect for function ___lwdiv
  2891  0016                     ___lwdiv:	
  2892  0016                     l1542:	
  2893                           ;incstack = 0
  2894                           ; Regs used in ___lwdiv: [wreg+status,2+status,0]
  2895                           
  2896  0016  01F5               	clrf	___lwdiv@quotient
  2897  0017  01F6               	clrf	___lwdiv@quotient+1
  2898  0018                     l1544:	
  2899  0018  0870               	movf	___lwdiv@divisor,w
  2900  0019  0471               	iorwf	___lwdiv@divisor+1,w
  2901  001A  1903               	btfsc	3,2
  2902  001B  281D               	goto	u1381
  2903  001C  281E               	goto	u1380
  2904  001D                     u1381:	
  2905  001D  2855               	goto	l1564
  2906  001E                     u1380:	
  2907  001E                     l1546:	
  2908  001E  01F7               	clrf	___lwdiv@counter
  2909  001F  0AF7               	incf	___lwdiv@counter,f
  2910  0020  282C               	goto	l1552
  2911  0021                     l1548:	
  2912  0021  3001               	movlw	1
  2913  0022                     u1395:	
  2914  0022  1003               	clrc
  2915  0023  0DF0               	rlf	___lwdiv@divisor,f
  2916  0024  0DF1               	rlf	___lwdiv@divisor+1,f
  2917  0025  3EFF               	addlw	-1
  2918  0026  1D03               	skipz
  2919  0027  2822               	goto	u1395
  2920  0028                     l1550:	
  2921  0028  3001               	movlw	1
  2922  0029  00F4               	movwf	??___lwdiv
  2923  002A  0874               	movf	??___lwdiv,w
  2924  002B  07F7               	addwf	___lwdiv@counter,f
  2925  002C                     l1552:	
  2926  002C  1FF1               	btfss	___lwdiv@divisor+1,7
  2927  002D  282F               	goto	u1401
  2928  002E  2830               	goto	u1400
  2929  002F                     u1401:	
  2930  002F  2821               	goto	l1548
  2931  0030                     u1400:	
  2932  0030                     l1554:	
  2933  0030  3001               	movlw	1
  2934  0031                     u1415:	
  2935  0031  1003               	clrc
  2936  0032  0DF5               	rlf	___lwdiv@quotient,f
  2937  0033  0DF6               	rlf	___lwdiv@quotient+1,f
  2938  0034  3EFF               	addlw	-1
  2939  0035  1D03               	skipz
  2940  0036  2831               	goto	u1415
  2941  0037  0871               	movf	___lwdiv@divisor+1,w
  2942  0038  0273               	subwf	___lwdiv@dividend+1,w
  2943  0039  1D03               	skipz
  2944  003A  283D               	goto	u1425
  2945  003B  0870               	movf	___lwdiv@divisor,w
  2946  003C  0272               	subwf	___lwdiv@dividend,w
  2947  003D                     u1425:	
  2948  003D  1C03               	skipc
  2949  003E  2840               	goto	u1421
  2950  003F  2841               	goto	u1420
  2951  0040                     u1421:	
  2952  0040  2848               	goto	l1560
  2953  0041                     u1420:	
  2954  0041                     l1556:	
  2955  0041  0870               	movf	___lwdiv@divisor,w
  2956  0042  02F2               	subwf	___lwdiv@dividend,f
  2957  0043  0871               	movf	___lwdiv@divisor+1,w
  2958  0044  1C03               	skipc
  2959  0045  03F3               	decf	___lwdiv@dividend+1,f
  2960  0046  02F3               	subwf	___lwdiv@dividend+1,f
  2961  0047                     l1558:	
  2962  0047  1475               	bsf	___lwdiv@quotient,0
  2963  0048                     l1560:	
  2964  0048  3001               	movlw	1
  2965  0049                     u1435:	
  2966  0049  1003               	clrc
  2967  004A  0CF1               	rrf	___lwdiv@divisor+1,f
  2968  004B  0CF0               	rrf	___lwdiv@divisor,f
  2969  004C  3EFF               	addlw	-1
  2970  004D  1D03               	skipz
  2971  004E  2849               	goto	u1435
  2972  004F                     l1562:	
  2973  004F  3001               	movlw	1
  2974  0050  02F7               	subwf	___lwdiv@counter,f
  2975  0051  1D03               	btfss	3,2
  2976  0052  2854               	goto	u1441
  2977  0053  2855               	goto	u1440
  2978  0054                     u1441:	
  2979  0054  2830               	goto	l1554
  2980  0055                     u1440:	
  2981  0055                     l1564:	
  2982  0055  0876               	movf	___lwdiv@quotient+1,w
  2983  0056  00F1               	movwf	?___lwdiv+1
  2984  0057  0875               	movf	___lwdiv@quotient,w
  2985  0058  00F0               	movwf	?___lwdiv
  2986  0059                     l515:	
  2987  0059  0008               	return
  2988  005A                     __end_of___lwdiv:	
  2989                           
  2990                           	psect	text14
  2991  00D6                     __ptext14:	
  2992 ;; *************** function ___xxtofl *****************
  2993 ;; Defined at:
  2994 ;;		line 10 in file "C:\Program Files (x86)\Microchip\xc8\v2.10\pic\sources\c90\common\xxtofl.c"
  2995 ;; Parameters:    Size  Location     Type
  2996 ;;  sign            1    wreg     unsigned char 
  2997 ;;  val             4    0[COMMON] long 
  2998 ;; Auto vars:     Size  Location     Type
  2999 ;;  sign            1    8[COMMON] unsigned char 
  3000 ;;  arg             4   10[COMMON] unsigned long 
  3001 ;;  exp             1    9[COMMON] unsigned char 
  3002 ;; Return value:  Size  Location     Type
  3003 ;;                  4    0[COMMON] unsigned char 
  3004 ;; Registers used:
  3005 ;;		wreg, status,2, status,0
  3006 ;; Tracked objects:
  3007 ;;		On entry : 0/0
  3008 ;;		On exit  : 0/0
  3009 ;;		Unchanged: 0/0
  3010 ;; Data sizes:     COMMON   BANK0   BANK1   BANK3   BANK2
  3011 ;;      Params:         4       0       0       0       0
  3012 ;;      Locals:         6       0       0       0       0
  3013 ;;      Temps:          4       0       0       0       0
  3014 ;;      Totals:        14       0       0       0       0
  3015 ;;Total ram usage:       14 bytes
  3016 ;; Hardware stack levels used:    1
  3017 ;; This function calls:
  3018 ;;		Nothing
  3019 ;; This function is called by:
  3020 ;;		_ADC
  3021 ;; This function uses a non-reentrant model
  3022 ;;
  3023                           
  3024                           
  3025                           ;psect for function ___xxtofl
  3026  00D6                     ___xxtofl:	
  3027                           
  3028                           ;incstack = 0
  3029                           ; Regs used in ___xxtofl: [wreg+status,2+status,0]
  3030                           ;___xxtofl@sign stored from wreg
  3031  00D6  00F8               	movwf	___xxtofl@sign
  3032  00D7                     l2092:	
  3033  00D7  0878               	movf	___xxtofl@sign,w
  3034  00D8  1903               	btfsc	3,2
  3035  00D9  28DB               	goto	u2571
  3036  00DA  28DC               	goto	u2570
  3037  00DB                     u2571:	
  3038  00DB  28F0               	goto	l2098
  3039  00DC                     u2570:	
  3040  00DC                     l2094:	
  3041  00DC  1FF3               	btfss	___xxtofl@val+3,7
  3042  00DD  28DF               	goto	u2581
  3043  00DE  28E0               	goto	u2580
  3044  00DF                     u2581:	
  3045  00DF  28F0               	goto	l2098
  3046  00E0                     u2580:	
  3047  00E0                     l2096:	
  3048  00E0  0970               	comf	___xxtofl@val,w
  3049  00E1  00FA               	movwf	___xxtofl@arg
  3050  00E2  0971               	comf	___xxtofl@val+1,w
  3051  00E3  00FB               	movwf	___xxtofl@arg+1
  3052  00E4  0972               	comf	___xxtofl@val+2,w
  3053  00E5  00FC               	movwf	___xxtofl@arg+2
  3054  00E6  0973               	comf	___xxtofl@val+3,w
  3055  00E7  00FD               	movwf	___xxtofl@arg+3
  3056  00E8  0AFA               	incf	___xxtofl@arg,f
  3057  00E9  1903               	skipnz
  3058  00EA  0AFB               	incf	___xxtofl@arg+1,f
  3059  00EB  1903               	skipnz
  3060  00EC  0AFC               	incf	___xxtofl@arg+2,f
  3061  00ED  1903               	skipnz
  3062  00EE  0AFD               	incf	___xxtofl@arg+3,f
  3063  00EF  28F8               	goto	l670
  3064  00F0                     l2098:	
  3065  00F0  0873               	movf	___xxtofl@val+3,w
  3066  00F1  00FD               	movwf	___xxtofl@arg+3
  3067  00F2  0872               	movf	___xxtofl@val+2,w
  3068  00F3  00FC               	movwf	___xxtofl@arg+2
  3069  00F4  0871               	movf	___xxtofl@val+1,w
  3070  00F5  00FB               	movwf	___xxtofl@arg+1
  3071  00F6  0870               	movf	___xxtofl@val,w
  3072  00F7  00FA               	movwf	___xxtofl@arg
  3073  00F8                     l670:	
  3074  00F8  0873               	movf	___xxtofl@val+3,w
  3075  00F9  0472               	iorwf	___xxtofl@val+2,w
  3076  00FA  0471               	iorwf	___xxtofl@val+1,w
  3077  00FB  0470               	iorwf	___xxtofl@val,w
  3078  00FC  1D03               	skipz
  3079  00FD  28FF               	goto	u2591
  3080  00FE  2900               	goto	u2590
  3081  00FF                     u2591:	
  3082  00FF  2909               	goto	l2104
  3083  0100                     u2590:	
  3084  0100                     l2100:	
  3085  0100  3000               	movlw	0
  3086  0101  00F3               	movwf	?___xxtofl+3
  3087  0102  3000               	movlw	0
  3088  0103  00F2               	movwf	?___xxtofl+2
  3089  0104  3000               	movlw	0
  3090  0105  00F1               	movwf	?___xxtofl+1
  3091  0106  3000               	movlw	0
  3092  0107  00F0               	movwf	?___xxtofl
  3093  0108  298F               	goto	l672
  3094  0109                     l2104:	
  3095  0109  3096               	movlw	150
  3096  010A  00F4               	movwf	??___xxtofl
  3097  010B  0874               	movf	??___xxtofl,w
  3098  010C  00F9               	movwf	___xxtofl@exp
  3099  010D  291B               	goto	l2108
  3100  010E                     l2106:	
  3101  010E  3001               	movlw	1
  3102  010F  00F4               	movwf	??___xxtofl
  3103  0110  0874               	movf	??___xxtofl,w
  3104  0111  07F9               	addwf	___xxtofl@exp,f
  3105  0112  3001               	movlw	1
  3106  0113                     u2605:	
  3107  0113  1003               	clrc
  3108  0114  0CFD               	rrf	___xxtofl@arg+3,f
  3109  0115  0CFC               	rrf	___xxtofl@arg+2,f
  3110  0116  0CFB               	rrf	___xxtofl@arg+1,f
  3111  0117  0CFA               	rrf	___xxtofl@arg,f
  3112  0118  3EFF               	addlw	-1
  3113  0119  1D03               	skipz
  3114  011A  2913               	goto	u2605
  3115  011B                     l2108:	
  3116  011B  30FE               	movlw	254
  3117  011C  057D               	andwf	___xxtofl@arg+3,w
  3118  011D  1D03               	btfss	3,2
  3119  011E  2920               	goto	u2611
  3120  011F  2921               	goto	u2610
  3121  0120                     u2611:	
  3122  0120  290E               	goto	l2106
  3123  0121                     u2610:	
  3124  0121  293D               	goto	l676
  3125  0122                     l2110:	
  3126  0122  3001               	movlw	1
  3127  0123  00F4               	movwf	??___xxtofl
  3128  0124  0874               	movf	??___xxtofl,w
  3129  0125  07F9               	addwf	___xxtofl@exp,f
  3130  0126                     l2112:	
  3131  0126  3001               	movlw	1
  3132  0127  07FA               	addwf	___xxtofl@arg,f
  3133  0128  3000               	movlw	0
  3134  0129  1803               	skipnc
  3135  012A  3001               	movlw	1
  3136  012B  07FB               	addwf	___xxtofl@arg+1,f
  3137  012C  3000               	movlw	0
  3138  012D  1803               	skipnc
  3139  012E  3001               	movlw	1
  3140  012F  07FC               	addwf	___xxtofl@arg+2,f
  3141  0130  3000               	movlw	0
  3142  0131  1803               	skipnc
  3143  0132  3001               	movlw	1
  3144  0133  07FD               	addwf	___xxtofl@arg+3,f
  3145  0134                     l2114:	
  3146  0134  3001               	movlw	1
  3147  0135                     u2625:	
  3148  0135  1003               	clrc
  3149  0136  0CFD               	rrf	___xxtofl@arg+3,f
  3150  0137  0CFC               	rrf	___xxtofl@arg+2,f
  3151  0138  0CFB               	rrf	___xxtofl@arg+1,f
  3152  0139  0CFA               	rrf	___xxtofl@arg,f
  3153  013A  3EFF               	addlw	-1
  3154  013B  1D03               	skipz
  3155  013C  2935               	goto	u2625
  3156  013D                     l676:	
  3157  013D  30FF               	movlw	255
  3158  013E  057D               	andwf	___xxtofl@arg+3,w
  3159  013F  1D03               	btfss	3,2
  3160  0140  2942               	goto	u2631
  3161  0141  2943               	goto	u2630
  3162  0142                     u2631:	
  3163  0142  2922               	goto	l2110
  3164  0143                     u2630:	
  3165  0143  294F               	goto	l2118
  3166  0144                     l2116:	
  3167  0144  3001               	movlw	1
  3168  0145  02F9               	subwf	___xxtofl@exp,f
  3169  0146  3001               	movlw	1
  3170  0147  00F4               	movwf	??___xxtofl
  3171  0148                     u2645:	
  3172  0148  1003               	clrc
  3173  0149  0DFA               	rlf	___xxtofl@arg,f
  3174  014A  0DFB               	rlf	___xxtofl@arg+1,f
  3175  014B  0DFC               	rlf	___xxtofl@arg+2,f
  3176  014C  0DFD               	rlf	___xxtofl@arg+3,f
  3177  014D  0BF4               	decfsz	??___xxtofl,f
  3178  014E  2948               	goto	u2645
  3179  014F                     l2118:	
  3180  014F  1BFC               	btfsc	___xxtofl@arg+2,7
  3181  0150  2952               	goto	u2651
  3182  0151  2953               	goto	u2650
  3183  0152                     u2651:	
  3184  0152  2959               	goto	l683
  3185  0153                     u2650:	
  3186  0153                     l2120:	
  3187  0153  3002               	movlw	2
  3188  0154  0279               	subwf	___xxtofl@exp,w
  3189  0155  1803               	skipnc
  3190  0156  2958               	goto	u2661
  3191  0157  2959               	goto	u2660
  3192  0158                     u2661:	
  3193  0158  2944               	goto	l2116
  3194  0159                     u2660:	
  3195  0159                     l683:	
  3196  0159  1879               	btfsc	___xxtofl@exp,0
  3197  015A  295C               	goto	u2671
  3198  015B  295D               	goto	u2670
  3199  015C                     u2671:	
  3200  015C  2965               	goto	l684
  3201  015D                     u2670:	
  3202  015D                     l2122:	
  3203  015D  30FF               	movlw	255
  3204  015E  05FA               	andwf	___xxtofl@arg,f
  3205  015F  30FF               	movlw	255
  3206  0160  05FB               	andwf	___xxtofl@arg+1,f
  3207  0161  307F               	movlw	127
  3208  0162  05FC               	andwf	___xxtofl@arg+2,f
  3209  0163  30FF               	movlw	255
  3210  0164  05FD               	andwf	___xxtofl@arg+3,f
  3211  0165                     l684:	
  3212  0165  1003               	clrc
  3213  0166  0CF9               	rrf	___xxtofl@exp,f
  3214  0167                     l2124:	
  3215  0167  0879               	movf	___xxtofl@exp,w
  3216  0168  00F4               	movwf	??___xxtofl
  3217  0169  01F5               	clrf	??___xxtofl+1
  3218  016A  01F6               	clrf	??___xxtofl+2
  3219  016B  01F7               	clrf	??___xxtofl+3
  3220  016C  3018               	movlw	24
  3221  016D                     u2685:	
  3222  016D  1003               	clrc
  3223  016E  0DF4               	rlf	??___xxtofl,f
  3224  016F  0DF5               	rlf	??___xxtofl+1,f
  3225  0170  0DF6               	rlf	??___xxtofl+2,f
  3226  0171  0DF7               	rlf	??___xxtofl+3,f
  3227  0172                     u2680:	
  3228  0172  3EFF               	addlw	-1
  3229  0173  1D03               	skipz
  3230  0174  296D               	goto	u2685
  3231  0175  0874               	movf	??___xxtofl,w
  3232  0176  04FA               	iorwf	___xxtofl@arg,f
  3233  0177  0875               	movf	??___xxtofl+1,w
  3234  0178  04FB               	iorwf	___xxtofl@arg+1,f
  3235  0179  0876               	movf	??___xxtofl+2,w
  3236  017A  04FC               	iorwf	___xxtofl@arg+2,f
  3237  017B  0877               	movf	??___xxtofl+3,w
  3238  017C  04FD               	iorwf	___xxtofl@arg+3,f
  3239  017D                     l2126:	
  3240  017D  0878               	movf	___xxtofl@sign,w
  3241  017E  1903               	btfsc	3,2
  3242  017F  2981               	goto	u2691
  3243  0180  2982               	goto	u2690
  3244  0181                     u2691:	
  3245  0181  2987               	goto	l2132
  3246  0182                     u2690:	
  3247  0182                     l2128:	
  3248  0182  1FF3               	btfss	___xxtofl@val+3,7
  3249  0183  2985               	goto	u2701
  3250  0184  2986               	goto	u2700
  3251  0185                     u2701:	
  3252  0185  2987               	goto	l2132
  3253  0186                     u2700:	
  3254  0186                     l2130:	
  3255  0186  17FD               	bsf	___xxtofl@arg+3,7
  3256  0187                     l2132:	
  3257  0187  087D               	movf	___xxtofl@arg+3,w
  3258  0188  00F3               	movwf	?___xxtofl+3
  3259  0189  087C               	movf	___xxtofl@arg+2,w
  3260  018A  00F2               	movwf	?___xxtofl+2
  3261  018B  087B               	movf	___xxtofl@arg+1,w
  3262  018C  00F1               	movwf	?___xxtofl+1
  3263  018D  087A               	movf	___xxtofl@arg,w
  3264  018E  00F0               	movwf	?___xxtofl
  3265  018F                     l672:	
  3266  018F  0008               	return
  3267  0190                     __end_of___xxtofl:	
  3268                           
  3269                           	psect	text15
  3270  005A                     __ptext15:	
  3271 ;; *************** function ___fltol *****************
  3272 ;; Defined at:
  3273 ;;		line 43 in file "C:\Program Files (x86)\Microchip\xc8\v2.10\pic\sources\c90\common\fltol.c"
  3274 ;; Parameters:    Size  Location     Type
  3275 ;;  f1              4   26[BANK0 ] unsigned char 
  3276 ;; Auto vars:     Size  Location     Type
  3277 ;;  exp1            1   36[BANK0 ] unsigned char 
  3278 ;;  sign1           1   35[BANK0 ] unsigned char 
  3279 ;; Return value:  Size  Location     Type
  3280 ;;                  4   26[BANK0 ] long 
  3281 ;; Registers used:
  3282 ;;		wreg, status,2, status,0
  3283 ;; Tracked objects:
  3284 ;;		On entry : 0/0
  3285 ;;		On exit  : 0/0
  3286 ;;		Unchanged: 0/0
  3287 ;; Data sizes:     COMMON   BANK0   BANK1   BANK3   BANK2
  3288 ;;      Params:         0       4       0       0       0
  3289 ;;      Locals:         0       2       0       0       0
  3290 ;;      Temps:          0       5       0       0       0
  3291 ;;      Totals:         0      11       0       0       0
  3292 ;;Total ram usage:       11 bytes
  3293 ;; Hardware stack levels used:    1
  3294 ;; This function calls:
  3295 ;;		Nothing
  3296 ;; This function is called by:
  3297 ;;		_ADC
  3298 ;; This function uses a non-reentrant model
  3299 ;;
  3300                           
  3301                           
  3302                           ;psect for function ___fltol
  3303  005A                     ___fltol:	
  3304  005A                     l1774:	
  3305                           ;incstack = 0
  3306                           ; Regs used in ___fltol: [wreg+status,2+status,0]
  3307                           
  3308  005A  1003               	clrc
  3309  005B  1283               	bcf	3,5	;RP0=0, select bank0
  3310  005C  1303               	bcf	3,6	;RP1=0, select bank0
  3311  005D  0D3C               	rlf	___fltol@f1+2,w
  3312  005E  0D3D               	rlf	___fltol@f1+3,w
  3313  005F  00BE               	movwf	??___fltol
  3314  0060  083E               	movf	??___fltol,w
  3315  0061  00C4               	movwf	___fltol@exp1
  3316  0062  0844               	movf	___fltol@exp1,w
  3317  0063  1D03               	btfss	3,2
  3318  0064  2866               	goto	u1811
  3319  0065  2867               	goto	u1810
  3320  0066                     u1811:	
  3321  0066  2870               	goto	l1780
  3322  0067                     u1810:	
  3323  0067                     l1776:	
  3324  0067  3000               	movlw	0
  3325  0068  00BD               	movwf	?___fltol+3
  3326  0069  3000               	movlw	0
  3327  006A  00BC               	movwf	?___fltol+2
  3328  006B  3000               	movlw	0
  3329  006C  00BB               	movwf	?___fltol+1
  3330  006D  3000               	movlw	0
  3331  006E  00BA               	movwf	?___fltol
  3332  006F  28D5               	goto	l429
  3333  0070                     l1780:	
  3334  0070  083A               	movf	___fltol@f1,w
  3335  0071  00BE               	movwf	??___fltol
  3336  0072  083B               	movf	___fltol@f1+1,w
  3337  0073  00BF               	movwf	??___fltol+1
  3338  0074  083C               	movf	___fltol@f1+2,w
  3339  0075  00C0               	movwf	??___fltol+2
  3340  0076  083D               	movf	___fltol@f1+3,w
  3341  0077  00C1               	movwf	??___fltol+3
  3342  0078  301F               	movlw	31
  3343  0079                     u1825:	
  3344  0079  1003               	clrc
  3345  007A  0CC1               	rrf	??___fltol+3,f
  3346  007B  0CC0               	rrf	??___fltol+2,f
  3347  007C  0CBF               	rrf	??___fltol+1,f
  3348  007D  0CBE               	rrf	??___fltol,f
  3349  007E                     u1820:	
  3350  007E  3EFF               	addlw	-1
  3351  007F  1D03               	skipz
  3352  0080  2879               	goto	u1825
  3353  0081  083E               	movf	??___fltol,w
  3354  0082  00C2               	movwf	??___fltol+4
  3355  0083  0842               	movf	??___fltol+4,w
  3356  0084  00C3               	movwf	___fltol@sign1
  3357  0085                     l1782:	
  3358  0085  17BC               	bsf	___fltol@f1+2,7
  3359  0086                     l1784:	
  3360  0086  30FF               	movlw	255
  3361  0087  05BA               	andwf	___fltol@f1,f
  3362  0088  30FF               	movlw	255
  3363  0089  05BB               	andwf	___fltol@f1+1,f
  3364  008A  30FF               	movlw	255
  3365  008B  05BC               	andwf	___fltol@f1+2,f
  3366  008C  3000               	movlw	0
  3367  008D  05BD               	andwf	___fltol@f1+3,f
  3368  008E                     l1786:	
  3369  008E  3096               	movlw	150
  3370  008F  02C4               	subwf	___fltol@exp1,f
  3371  0090                     l1788:	
  3372  0090  1FC4               	btfss	___fltol@exp1,7
  3373  0091  2893               	goto	u1831
  3374  0092  2894               	goto	u1830
  3375  0093                     u1831:	
  3376  0093  28AE               	goto	l1798
  3377  0094                     u1830:	
  3378  0094                     l1790:	
  3379  0094  0844               	movf	___fltol@exp1,w
  3380  0095  3A80               	xorlw	128
  3381  0096  3E97               	addlw	151
  3382  0097  1803               	skipnc
  3383  0098  289A               	goto	u1841
  3384  0099  289B               	goto	u1840
  3385  009A                     u1841:	
  3386  009A  289C               	goto	l1796
  3387  009B                     u1840:	
  3388  009B  2867               	goto	l1776
  3389  009C                     l1796:	
  3390  009C  3001               	movlw	1
  3391  009D                     u1855:	
  3392  009D  1003               	clrc
  3393  009E  0CBD               	rrf	___fltol@f1+3,f
  3394  009F  0CBC               	rrf	___fltol@f1+2,f
  3395  00A0  0CBB               	rrf	___fltol@f1+1,f
  3396  00A1  0CBA               	rrf	___fltol@f1,f
  3397  00A2  3EFF               	addlw	-1
  3398  00A3  1D03               	skipz
  3399  00A4  289D               	goto	u1855
  3400  00A5  3001               	movlw	1
  3401  00A6  00BE               	movwf	??___fltol
  3402  00A7  083E               	movf	??___fltol,w
  3403  00A8  07C4               	addwf	___fltol@exp1,f
  3404  00A9  1D03               	btfss	3,2
  3405  00AA  28AC               	goto	u1861
  3406  00AB  28AD               	goto	u1860
  3407  00AC                     u1861:	
  3408  00AC  289C               	goto	l1796
  3409  00AD                     u1860:	
  3410  00AD  28C5               	goto	l1806
  3411  00AE                     l1798:	
  3412  00AE  3020               	movlw	32
  3413  00AF  0244               	subwf	___fltol@exp1,w
  3414  00B0  1C03               	skipc
  3415  00B1  28B3               	goto	u1871
  3416  00B2  28B4               	goto	u1870
  3417  00B3                     u1871:	
  3418  00B3  28C0               	goto	l436
  3419  00B4                     u1870:	
  3420  00B4  2867               	goto	l1776
  3421  00B5                     l1804:	
  3422  00B5  3001               	movlw	1
  3423  00B6  00BE               	movwf	??___fltol
  3424  00B7                     u1885:	
  3425  00B7  1003               	clrc
  3426  00B8  0DBA               	rlf	___fltol@f1,f
  3427  00B9  0DBB               	rlf	___fltol@f1+1,f
  3428  00BA  0DBC               	rlf	___fltol@f1+2,f
  3429  00BB  0DBD               	rlf	___fltol@f1+3,f
  3430  00BC  0BBE               	decfsz	??___fltol,f
  3431  00BD  28B7               	goto	u1885
  3432  00BE  3001               	movlw	1
  3433  00BF  02C4               	subwf	___fltol@exp1,f
  3434  00C0                     l436:	
  3435  00C0  0844               	movf	___fltol@exp1,w
  3436  00C1  1D03               	btfss	3,2
  3437  00C2  28C4               	goto	u1891
  3438  00C3  28C5               	goto	u1890
  3439  00C4                     u1891:	
  3440  00C4  28B5               	goto	l1804
  3441  00C5                     u1890:	
  3442  00C5                     l1806:	
  3443  00C5  0843               	movf	___fltol@sign1,w
  3444  00C6  1903               	btfsc	3,2
  3445  00C7  28C9               	goto	u1901
  3446  00C8  28CA               	goto	u1900
  3447  00C9                     u1901:	
  3448  00C9  28D5               	goto	l439
  3449  00CA                     u1900:	
  3450  00CA                     l1808:	
  3451  00CA  09BA               	comf	___fltol@f1,f
  3452  00CB  09BB               	comf	___fltol@f1+1,f
  3453  00CC  09BC               	comf	___fltol@f1+2,f
  3454  00CD  09BD               	comf	___fltol@f1+3,f
  3455  00CE  0ABA               	incf	___fltol@f1,f
  3456  00CF  1903               	skipnz
  3457  00D0  0ABB               	incf	___fltol@f1+1,f
  3458  00D1  1903               	skipnz
  3459  00D2  0ABC               	incf	___fltol@f1+2,f
  3460  00D3  1903               	skipnz
  3461  00D4  0ABD               	incf	___fltol@f1+3,f
  3462  00D5                     l439:	
  3463  00D5                     l429:	
  3464  00D5  0008               	return
  3465  00D6                     __end_of___fltol:	
  3466                           
  3467                           	psect	text16
  3468  048A                     __ptext16:	
  3469 ;; *************** function ___flmul *****************
  3470 ;; Defined at:
  3471 ;;		line 8 in file "C:\Program Files (x86)\Microchip\xc8\v2.10\pic\sources\c90\common\sprcmul.c"
  3472 ;; Parameters:    Size  Location     Type
  3473 ;;  b               4    0[BANK0 ] long 
  3474 ;;  a               4    4[BANK0 ] long 
  3475 ;; Auto vars:     Size  Location     Type
  3476 ;;  prod            4   20[BANK0 ] struct .
  3477 ;;  grs             4   14[BANK0 ] unsigned long 
  3478 ;;  temp            2   24[BANK0 ] struct .
  3479 ;;  bexp            1   19[BANK0 ] unsigned char 
  3480 ;;  aexp            1   18[BANK0 ] unsigned char 
  3481 ;;  sign            1   13[BANK0 ] unsigned char 
  3482 ;; Return value:  Size  Location     Type
  3483 ;;                  4    0[BANK0 ] unsigned char 
  3484 ;; Registers used:
  3485 ;;		wreg, status,2, status,0, btemp+1, pclath, cstack
  3486 ;; Tracked objects:
  3487 ;;		On entry : 0/0
  3488 ;;		On exit  : 0/0
  3489 ;;		Unchanged: 0/0
  3490 ;; Data sizes:     COMMON   BANK0   BANK1   BANK3   BANK2
  3491 ;;      Params:         0       8       0       0       0
  3492 ;;      Locals:         0      13       0       0       0
  3493 ;;      Temps:          0       5       0       0       0
  3494 ;;      Totals:         0      26       0       0       0
  3495 ;;Total ram usage:       26 bytes
  3496 ;; Hardware stack levels used:    1
  3497 ;; Hardware stack levels required when called:    1
  3498 ;; This function calls:
  3499 ;;		__Umul8_16
  3500 ;; This function is called by:
  3501 ;;		_ADC
  3502 ;; This function uses a non-reentrant model
  3503 ;;
  3504                           
  3505                           
  3506                           ;psect for function ___flmul
  3507  048A                     ___flmul:	
  3508  048A                     l1952:	
  3509                           ;incstack = 0
  3510                           ; Regs used in ___flmul: [wreg+status,2+status,0+btemp+1+pclath+cstack]
  3511                           
  3512  048A  1283               	bcf	3,5	;RP0=0, select bank0
  3513  048B  1303               	bcf	3,6	;RP1=0, select bank0
  3514  048C  0823               	movf	___flmul@b+3,w
  3515  048D  3980               	andlw	128
  3516  048E  00A8               	movwf	??___flmul
  3517  048F  0828               	movf	??___flmul,w
  3518  0490  00AD               	movwf	___flmul@sign
  3519  0491                     l1954:	
  3520  0491  0823               	movf	___flmul@b+3,w
  3521  0492  00A8               	movwf	??___flmul
  3522  0493  0728               	addwf	??___flmul,w
  3523  0494  00A9               	movwf	??___flmul+1
  3524  0495  0829               	movf	??___flmul+1,w
  3525  0496  00B3               	movwf	___flmul@bexp
  3526  0497                     l1956:	
  3527  0497  1FA2               	btfss	___flmul@b+2,7
  3528  0498  2C9A               	goto	u2201
  3529  0499  2C9B               	goto	u2200
  3530  049A                     u2201:	
  3531  049A  2C9C               	goto	l1960
  3532  049B                     u2200:	
  3533  049B                     l1958:	
  3534  049B  1433               	bsf	___flmul@bexp,0
  3535  049C                     l1960:	
  3536  049C  0833               	movf	___flmul@bexp,w
  3537  049D  1903               	btfsc	3,2
  3538  049E  2CA0               	goto	u2211
  3539  049F  2CA1               	goto	u2210
  3540  04A0                     u2211:	
  3541  04A0  2CB0               	goto	l1968
  3542  04A1                     u2210:	
  3543  04A1                     l1962:	
  3544  04A1  0A33               	incf	___flmul@bexp,w
  3545  04A2  1D03               	btfss	3,2
  3546  04A3  2CA5               	goto	u2221
  3547  04A4  2CA6               	goto	u2220
  3548  04A5                     u2221:	
  3549  04A5  2CAE               	goto	l1966
  3550  04A6                     u2220:	
  3551  04A6                     l1964:	
  3552  04A6  3000               	movlw	0
  3553  04A7  00A3               	movwf	___flmul@b+3
  3554  04A8  3000               	movlw	0
  3555  04A9  00A2               	movwf	___flmul@b+2
  3556  04AA  3000               	movlw	0
  3557  04AB  00A1               	movwf	___flmul@b+1
  3558  04AC  3000               	movlw	0
  3559  04AD  00A0               	movwf	___flmul@b
  3560  04AE                     l1966:	
  3561  04AE  17A2               	bsf	___flmul@b+2,7
  3562  04AF  2CB8               	goto	l1970
  3563  04B0                     l1968:	
  3564  04B0  3000               	movlw	0
  3565  04B1  00A3               	movwf	___flmul@b+3
  3566  04B2  3000               	movlw	0
  3567  04B3  00A2               	movwf	___flmul@b+2
  3568  04B4  3000               	movlw	0
  3569  04B5  00A1               	movwf	___flmul@b+1
  3570  04B6  3000               	movlw	0
  3571  04B7  00A0               	movwf	___flmul@b
  3572  04B8                     l1970:	
  3573  04B8  0827               	movf	___flmul@a+3,w
  3574  04B9  3980               	andlw	128
  3575  04BA  00A8               	movwf	??___flmul
  3576  04BB  0828               	movf	??___flmul,w
  3577  04BC  06AD               	xorwf	___flmul@sign,f
  3578  04BD                     l1972:	
  3579  04BD  0827               	movf	___flmul@a+3,w
  3580  04BE  00A8               	movwf	??___flmul
  3581  04BF  0728               	addwf	??___flmul,w
  3582  04C0  00A9               	movwf	??___flmul+1
  3583  04C1  0829               	movf	??___flmul+1,w
  3584  04C2  00B2               	movwf	___flmul@aexp
  3585  04C3                     l1974:	
  3586  04C3  1FA6               	btfss	___flmul@a+2,7
  3587  04C4  2CC6               	goto	u2231
  3588  04C5  2CC7               	goto	u2230
  3589  04C6                     u2231:	
  3590  04C6  2CC8               	goto	l1978
  3591  04C7                     u2230:	
  3592  04C7                     l1976:	
  3593  04C7  1432               	bsf	___flmul@aexp,0
  3594  04C8                     l1978:	
  3595  04C8  0832               	movf	___flmul@aexp,w
  3596  04C9  1903               	btfsc	3,2
  3597  04CA  2CCC               	goto	u2241
  3598  04CB  2CCD               	goto	u2240
  3599  04CC                     u2241:	
  3600  04CC  2CDC               	goto	l1986
  3601  04CD                     u2240:	
  3602  04CD                     l1980:	
  3603  04CD  0A32               	incf	___flmul@aexp,w
  3604  04CE  1D03               	btfss	3,2
  3605  04CF  2CD1               	goto	u2251
  3606  04D0  2CD2               	goto	u2250
  3607  04D1                     u2251:	
  3608  04D1  2CDA               	goto	l1984
  3609  04D2                     u2250:	
  3610  04D2                     l1982:	
  3611  04D2  3000               	movlw	0
  3612  04D3  00A7               	movwf	___flmul@a+3
  3613  04D4  3000               	movlw	0
  3614  04D5  00A6               	movwf	___flmul@a+2
  3615  04D6  3000               	movlw	0
  3616  04D7  00A5               	movwf	___flmul@a+1
  3617  04D8  3000               	movlw	0
  3618  04D9  00A4               	movwf	___flmul@a
  3619  04DA                     l1984:	
  3620  04DA  17A6               	bsf	___flmul@a+2,7
  3621  04DB  2CE4               	goto	l1988
  3622  04DC                     l1986:	
  3623  04DC  3000               	movlw	0
  3624  04DD  00A7               	movwf	___flmul@a+3
  3625  04DE  3000               	movlw	0
  3626  04DF  00A6               	movwf	___flmul@a+2
  3627  04E0  3000               	movlw	0
  3628  04E1  00A5               	movwf	___flmul@a+1
  3629  04E2  3000               	movlw	0
  3630  04E3  00A4               	movwf	___flmul@a
  3631  04E4                     l1988:	
  3632  04E4  0832               	movf	___flmul@aexp,w
  3633  04E5  1903               	btfsc	3,2
  3634  04E6  2CE8               	goto	u2261
  3635  04E7  2CE9               	goto	u2260
  3636  04E8                     u2261:	
  3637  04E8  2CEE               	goto	l1992
  3638  04E9                     u2260:	
  3639  04E9                     l1990:	
  3640  04E9  0833               	movf	___flmul@bexp,w
  3641  04EA  1D03               	btfss	3,2
  3642  04EB  2CED               	goto	u2271
  3643  04EC  2CEE               	goto	u2270
  3644  04ED                     u2271:	
  3645  04ED  2CF7               	goto	l1996
  3646  04EE                     u2270:	
  3647  04EE                     l1992:	
  3648  04EE  3000               	movlw	0
  3649  04EF  00A3               	movwf	?___flmul+3
  3650  04F0  3000               	movlw	0
  3651  04F1  00A2               	movwf	?___flmul+2
  3652  04F2  3000               	movlw	0
  3653  04F3  00A1               	movwf	?___flmul+1
  3654  04F4  3000               	movlw	0
  3655  04F5  00A0               	movwf	?___flmul
  3656  04F6  2FEA               	goto	l632
  3657  04F7                     l1996:	
  3658  04F7  0820               	movf	___flmul@b,w
  3659  04F8  00A8               	movwf	??___flmul
  3660  04F9  0828               	movf	??___flmul,w
  3661  04FA  00F0               	movwf	__Umul8_16@multiplicand
  3662  04FB  0826               	movf	___flmul@a+2,w
  3663  04FC  120A  158A  2410  120A  118A  	fcall	__Umul8_16
  3664  0501  0871               	movf	?__Umul8_16+1,w
  3665  0502  1283               	bcf	3,5	;RP0=0, select bank0
  3666  0503  1303               	bcf	3,6	;RP1=0, select bank0
  3667  0504  00B9               	movwf	___flmul@temp+1
  3668  0505  0870               	movf	?__Umul8_16,w
  3669  0506  00B8               	movwf	___flmul@temp
  3670  0507                     l1998:	
  3671  0507  0838               	movf	___flmul@temp,w
  3672  0508  00A8               	movwf	??___flmul
  3673  0509  01A9               	clrf	??___flmul+1
  3674  050A  01AA               	clrf	??___flmul+2
  3675  050B  01AB               	clrf	??___flmul+3
  3676  050C  082B               	movf	??___flmul+3,w
  3677  050D  00B1               	movwf	___flmul@grs+3
  3678  050E  082A               	movf	??___flmul+2,w
  3679  050F  00B0               	movwf	___flmul@grs+2
  3680  0510  0829               	movf	??___flmul+1,w
  3681  0511  00AF               	movwf	___flmul@grs+1
  3682  0512  0828               	movf	??___flmul,w
  3683  0513  00AE               	movwf	___flmul@grs
  3684  0514                     l2000:	
  3685  0514  0839               	movf	___flmul@temp+1,w
  3686  0515  00A8               	movwf	??___flmul
  3687  0516  01A9               	clrf	??___flmul+1
  3688  0517  01AA               	clrf	??___flmul+2
  3689  0518  01AB               	clrf	??___flmul+3
  3690  0519  082B               	movf	??___flmul+3,w
  3691  051A  00B7               	movwf	___flmul@prod+3
  3692  051B  082A               	movf	??___flmul+2,w
  3693  051C  00B6               	movwf	___flmul@prod+2
  3694  051D  0829               	movf	??___flmul+1,w
  3695  051E  00B5               	movwf	___flmul@prod+1
  3696  051F  0828               	movf	??___flmul,w
  3697  0520  00B4               	movwf	___flmul@prod
  3698  0521  0821               	movf	___flmul@b+1,w
  3699  0522  00A8               	movwf	??___flmul
  3700  0523  0828               	movf	??___flmul,w
  3701  0524  00F0               	movwf	__Umul8_16@multiplicand
  3702  0525  0825               	movf	___flmul@a+1,w
  3703  0526  120A  158A  2410  120A  118A  	fcall	__Umul8_16
  3704  052B  0871               	movf	?__Umul8_16+1,w
  3705  052C  1283               	bcf	3,5	;RP0=0, select bank0
  3706  052D  1303               	bcf	3,6	;RP1=0, select bank0
  3707  052E  00B9               	movwf	___flmul@temp+1
  3708  052F  0870               	movf	?__Umul8_16,w
  3709  0530  00B8               	movwf	___flmul@temp
  3710  0531                     l2002:	
  3711  0531  0838               	movf	___flmul@temp,w
  3712  0532  00A8               	movwf	??___flmul
  3713  0533  01A9               	clrf	??___flmul+1
  3714  0534  01AA               	clrf	??___flmul+2
  3715  0535  01AB               	clrf	??___flmul+3
  3716  0536  0828               	movf	??___flmul,w
  3717  0537  07AE               	addwf	___flmul@grs,f
  3718  0538  0829               	movf	??___flmul+1,w
  3719  0539  1103               	clrz
  3720  053A  1803               	skipnc
  3721  053B  3E01               	addlw	1
  3722  053C  1903               	skipnz
  3723  053D  2D3F               	goto	u2281
  3724  053E  07AF               	addwf	___flmul@grs+1,f
  3725  053F                     u2281:	
  3726  053F  082A               	movf	??___flmul+2,w
  3727  0540  1103               	clrz
  3728  0541  1803               	skipnc
  3729  0542  3E01               	addlw	1
  3730  0543  1903               	skipnz
  3731  0544  2D46               	goto	u2282
  3732  0545  07B0               	addwf	___flmul@grs+2,f
  3733  0546                     u2282:	
  3734  0546  082B               	movf	??___flmul+3,w
  3735  0547  1103               	clrz
  3736  0548  1803               	skipnc
  3737  0549  3E01               	addlw	1
  3738  054A  1903               	skipnz
  3739  054B  2D4D               	goto	u2283
  3740  054C  07B1               	addwf	___flmul@grs+3,f
  3741  054D                     u2283:	
  3742  054D                     l2004:	
  3743  054D  0839               	movf	___flmul@temp+1,w
  3744  054E  00A8               	movwf	??___flmul
  3745  054F  01A9               	clrf	??___flmul+1
  3746  0550  01AA               	clrf	??___flmul+2
  3747  0551  01AB               	clrf	??___flmul+3
  3748  0552  0828               	movf	??___flmul,w
  3749  0553  07B4               	addwf	___flmul@prod,f
  3750  0554  0829               	movf	??___flmul+1,w
  3751  0555  1103               	clrz
  3752  0556  1803               	skipnc
  3753  0557  3E01               	addlw	1
  3754  0558  1903               	skipnz
  3755  0559  2D5B               	goto	u2291
  3756  055A  07B5               	addwf	___flmul@prod+1,f
  3757  055B                     u2291:	
  3758  055B  082A               	movf	??___flmul+2,w
  3759  055C  1103               	clrz
  3760  055D  1803               	skipnc
  3761  055E  3E01               	addlw	1
  3762  055F  1903               	skipnz
  3763  0560  2D62               	goto	u2292
  3764  0561  07B6               	addwf	___flmul@prod+2,f
  3765  0562                     u2292:	
  3766  0562  082B               	movf	??___flmul+3,w
  3767  0563  1103               	clrz
  3768  0564  1803               	skipnc
  3769  0565  3E01               	addlw	1
  3770  0566  1903               	skipnz
  3771  0567  2D69               	goto	u2293
  3772  0568  07B7               	addwf	___flmul@prod+3,f
  3773  0569                     u2293:	
  3774  0569  0822               	movf	___flmul@b+2,w
  3775  056A  00A8               	movwf	??___flmul
  3776  056B  0828               	movf	??___flmul,w
  3777  056C  00F0               	movwf	__Umul8_16@multiplicand
  3778  056D  0824               	movf	___flmul@a,w
  3779  056E  120A  158A  2410  120A  118A  	fcall	__Umul8_16
  3780  0573  0871               	movf	?__Umul8_16+1,w
  3781  0574  1283               	bcf	3,5	;RP0=0, select bank0
  3782  0575  1303               	bcf	3,6	;RP1=0, select bank0
  3783  0576  00B9               	movwf	___flmul@temp+1
  3784  0577  0870               	movf	?__Umul8_16,w
  3785  0578  00B8               	movwf	___flmul@temp
  3786  0579                     l2006:	
  3787  0579  0838               	movf	___flmul@temp,w
  3788  057A  00A8               	movwf	??___flmul
  3789  057B  01A9               	clrf	??___flmul+1
  3790  057C  01AA               	clrf	??___flmul+2
  3791  057D  01AB               	clrf	??___flmul+3
  3792  057E  0828               	movf	??___flmul,w
  3793  057F  07AE               	addwf	___flmul@grs,f
  3794  0580  0829               	movf	??___flmul+1,w
  3795  0581  1103               	clrz
  3796  0582  1803               	skipnc
  3797  0583  3E01               	addlw	1
  3798  0584  1903               	skipnz
  3799  0585  2D87               	goto	u2301
  3800  0586  07AF               	addwf	___flmul@grs+1,f
  3801  0587                     u2301:	
  3802  0587  082A               	movf	??___flmul+2,w
  3803  0588  1103               	clrz
  3804  0589  1803               	skipnc
  3805  058A  3E01               	addlw	1
  3806  058B  1903               	skipnz
  3807  058C  2D8E               	goto	u2302
  3808  058D  07B0               	addwf	___flmul@grs+2,f
  3809  058E                     u2302:	
  3810  058E  082B               	movf	??___flmul+3,w
  3811  058F  1103               	clrz
  3812  0590  1803               	skipnc
  3813  0591  3E01               	addlw	1
  3814  0592  1903               	skipnz
  3815  0593  2D95               	goto	u2303
  3816  0594  07B1               	addwf	___flmul@grs+3,f
  3817  0595                     u2303:	
  3818  0595                     l2008:	
  3819  0595  0839               	movf	___flmul@temp+1,w
  3820  0596  00A8               	movwf	??___flmul
  3821  0597  01A9               	clrf	??___flmul+1
  3822  0598  01AA               	clrf	??___flmul+2
  3823  0599  01AB               	clrf	??___flmul+3
  3824  059A  0828               	movf	??___flmul,w
  3825  059B  07B4               	addwf	___flmul@prod,f
  3826  059C  0829               	movf	??___flmul+1,w
  3827  059D  1103               	clrz
  3828  059E  1803               	skipnc
  3829  059F  3E01               	addlw	1
  3830  05A0  1903               	skipnz
  3831  05A1  2DA3               	goto	u2311
  3832  05A2  07B5               	addwf	___flmul@prod+1,f
  3833  05A3                     u2311:	
  3834  05A3  082A               	movf	??___flmul+2,w
  3835  05A4  1103               	clrz
  3836  05A5  1803               	skipnc
  3837  05A6  3E01               	addlw	1
  3838  05A7  1903               	skipnz
  3839  05A8  2DAA               	goto	u2312
  3840  05A9  07B6               	addwf	___flmul@prod+2,f
  3841  05AA                     u2312:	
  3842  05AA  082B               	movf	??___flmul+3,w
  3843  05AB  1103               	clrz
  3844  05AC  1803               	skipnc
  3845  05AD  3E01               	addlw	1
  3846  05AE  1903               	skipnz
  3847  05AF  2DB1               	goto	u2313
  3848  05B0  07B7               	addwf	___flmul@prod+3,f
  3849  05B1                     u2313:	
  3850  05B1                     l2010:	
  3851  05B1  3008               	movlw	8
  3852  05B2  00A8               	movwf	??___flmul
  3853  05B3                     u2325:	
  3854  05B3  1003               	clrc
  3855  05B4  0DAE               	rlf	___flmul@grs,f
  3856  05B5  0DAF               	rlf	___flmul@grs+1,f
  3857  05B6  0DB0               	rlf	___flmul@grs+2,f
  3858  05B7  0DB1               	rlf	___flmul@grs+3,f
  3859  05B8  0BA8               	decfsz	??___flmul,f
  3860  05B9  2DB3               	goto	u2325
  3861  05BA                     l2012:	
  3862  05BA  0821               	movf	___flmul@b+1,w
  3863  05BB  00A8               	movwf	??___flmul
  3864  05BC  0828               	movf	??___flmul,w
  3865  05BD  00F0               	movwf	__Umul8_16@multiplicand
  3866  05BE  0824               	movf	___flmul@a,w
  3867  05BF  120A  158A  2410  120A  118A  	fcall	__Umul8_16
  3868  05C4  0871               	movf	?__Umul8_16+1,w
  3869  05C5  1283               	bcf	3,5	;RP0=0, select bank0
  3870  05C6  1303               	bcf	3,6	;RP1=0, select bank0
  3871  05C7  00B9               	movwf	___flmul@temp+1
  3872  05C8  0870               	movf	?__Umul8_16,w
  3873  05C9  00B8               	movwf	___flmul@temp
  3874  05CA                     l2014:	
  3875  05CA  0838               	movf	___flmul@temp,w
  3876  05CB  00A8               	movwf	??___flmul
  3877  05CC  0839               	movf	___flmul@temp+1,w
  3878  05CD  00A9               	movwf	??___flmul+1
  3879  05CE  01AA               	clrf	??___flmul+2
  3880  05CF  01AB               	clrf	??___flmul+3
  3881  05D0  0828               	movf	??___flmul,w
  3882  05D1  07AE               	addwf	___flmul@grs,f
  3883  05D2  0829               	movf	??___flmul+1,w
  3884  05D3  1103               	clrz
  3885  05D4  1803               	skipnc
  3886  05D5  3E01               	addlw	1
  3887  05D6  1903               	skipnz
  3888  05D7  2DD9               	goto	u2331
  3889  05D8  07AF               	addwf	___flmul@grs+1,f
  3890  05D9                     u2331:	
  3891  05D9  082A               	movf	??___flmul+2,w
  3892  05DA  1103               	clrz
  3893  05DB  1803               	skipnc
  3894  05DC  3E01               	addlw	1
  3895  05DD  1903               	skipnz
  3896  05DE  2DE0               	goto	u2332
  3897  05DF  07B0               	addwf	___flmul@grs+2,f
  3898  05E0                     u2332:	
  3899  05E0  082B               	movf	??___flmul+3,w
  3900  05E1  1103               	clrz
  3901  05E2  1803               	skipnc
  3902  05E3  3E01               	addlw	1
  3903  05E4  1903               	skipnz
  3904  05E5  2DE7               	goto	u2333
  3905  05E6  07B1               	addwf	___flmul@grs+3,f
  3906  05E7                     u2333:	
  3907  05E7                     l2016:	
  3908  05E7  0820               	movf	___flmul@b,w
  3909  05E8  00A8               	movwf	??___flmul
  3910  05E9  0828               	movf	??___flmul,w
  3911  05EA  00F0               	movwf	__Umul8_16@multiplicand
  3912  05EB  0825               	movf	___flmul@a+1,w
  3913  05EC  120A  158A  2410  120A  118A  	fcall	__Umul8_16
  3914  05F1  0871               	movf	?__Umul8_16+1,w
  3915  05F2  1283               	bcf	3,5	;RP0=0, select bank0
  3916  05F3  1303               	bcf	3,6	;RP1=0, select bank0
  3917  05F4  00B9               	movwf	___flmul@temp+1
  3918  05F5  0870               	movf	?__Umul8_16,w
  3919  05F6  00B8               	movwf	___flmul@temp
  3920  05F7                     l2018:	
  3921  05F7  0838               	movf	___flmul@temp,w
  3922  05F8  00A8               	movwf	??___flmul
  3923  05F9  0839               	movf	___flmul@temp+1,w
  3924  05FA  00A9               	movwf	??___flmul+1
  3925  05FB  01AA               	clrf	??___flmul+2
  3926  05FC  01AB               	clrf	??___flmul+3
  3927  05FD  0828               	movf	??___flmul,w
  3928  05FE  07AE               	addwf	___flmul@grs,f
  3929  05FF  0829               	movf	??___flmul+1,w
  3930  0600  1103               	clrz
  3931  0601  1803               	skipnc
  3932  0602  3E01               	addlw	1
  3933  0603  1903               	skipnz
  3934  0604  2E06               	goto	u2341
  3935  0605  07AF               	addwf	___flmul@grs+1,f
  3936  0606                     u2341:	
  3937  0606  082A               	movf	??___flmul+2,w
  3938  0607  1103               	clrz
  3939  0608  1803               	skipnc
  3940  0609  3E01               	addlw	1
  3941  060A  1903               	skipnz
  3942  060B  2E0D               	goto	u2342
  3943  060C  07B0               	addwf	___flmul@grs+2,f
  3944  060D                     u2342:	
  3945  060D  082B               	movf	??___flmul+3,w
  3946  060E  1103               	clrz
  3947  060F  1803               	skipnc
  3948  0610  3E01               	addlw	1
  3949  0611  1903               	skipnz
  3950  0612  2E14               	goto	u2343
  3951  0613  07B1               	addwf	___flmul@grs+3,f
  3952  0614                     u2343:	
  3953  0614                     l2020:	
  3954  0614  3008               	movlw	8
  3955  0615  00A8               	movwf	??___flmul
  3956  0616                     u2355:	
  3957  0616  1003               	clrc
  3958  0617  0DAE               	rlf	___flmul@grs,f
  3959  0618  0DAF               	rlf	___flmul@grs+1,f
  3960  0619  0DB0               	rlf	___flmul@grs+2,f
  3961  061A  0DB1               	rlf	___flmul@grs+3,f
  3962  061B  0BA8               	decfsz	??___flmul,f
  3963  061C  2E16               	goto	u2355
  3964  061D  0820               	movf	___flmul@b,w
  3965  061E  00A8               	movwf	??___flmul
  3966  061F  0828               	movf	??___flmul,w
  3967  0620  00F0               	movwf	__Umul8_16@multiplicand
  3968  0621  0824               	movf	___flmul@a,w
  3969  0622  120A  158A  2410  120A  118A  	fcall	__Umul8_16
  3970  0627  0871               	movf	?__Umul8_16+1,w
  3971  0628  1283               	bcf	3,5	;RP0=0, select bank0
  3972  0629  1303               	bcf	3,6	;RP1=0, select bank0
  3973  062A  00B9               	movwf	___flmul@temp+1
  3974  062B  0870               	movf	?__Umul8_16,w
  3975  062C  00B8               	movwf	___flmul@temp
  3976  062D                     l2022:	
  3977  062D  0838               	movf	___flmul@temp,w
  3978  062E  00A8               	movwf	??___flmul
  3979  062F  0839               	movf	___flmul@temp+1,w
  3980  0630  00A9               	movwf	??___flmul+1
  3981  0631  01AA               	clrf	??___flmul+2
  3982  0632  01AB               	clrf	??___flmul+3
  3983  0633  0828               	movf	??___flmul,w
  3984  0634  07AE               	addwf	___flmul@grs,f
  3985  0635  0829               	movf	??___flmul+1,w
  3986  0636  1103               	clrz
  3987  0637  1803               	skipnc
  3988  0638  3E01               	addlw	1
  3989  0639  1903               	skipnz
  3990  063A  2E3C               	goto	u2361
  3991  063B  07AF               	addwf	___flmul@grs+1,f
  3992  063C                     u2361:	
  3993  063C  082A               	movf	??___flmul+2,w
  3994  063D  1103               	clrz
  3995  063E  1803               	skipnc
  3996  063F  3E01               	addlw	1
  3997  0640  1903               	skipnz
  3998  0641  2E43               	goto	u2362
  3999  0642  07B0               	addwf	___flmul@grs+2,f
  4000  0643                     u2362:	
  4001  0643  082B               	movf	??___flmul+3,w
  4002  0644  1103               	clrz
  4003  0645  1803               	skipnc
  4004  0646  3E01               	addlw	1
  4005  0647  1903               	skipnz
  4006  0648  2E4A               	goto	u2363
  4007  0649  07B1               	addwf	___flmul@grs+3,f
  4008  064A                     u2363:	
  4009  064A                     l2024:	
  4010  064A  0821               	movf	___flmul@b+1,w
  4011  064B  00A8               	movwf	??___flmul
  4012  064C  0828               	movf	??___flmul,w
  4013  064D  00F0               	movwf	__Umul8_16@multiplicand
  4014  064E  0826               	movf	___flmul@a+2,w
  4015  064F  120A  158A  2410  120A  118A  	fcall	__Umul8_16
  4016  0654  0871               	movf	?__Umul8_16+1,w
  4017  0655  1283               	bcf	3,5	;RP0=0, select bank0
  4018  0656  1303               	bcf	3,6	;RP1=0, select bank0
  4019  0657  00B9               	movwf	___flmul@temp+1
  4020  0658  0870               	movf	?__Umul8_16,w
  4021  0659  00B8               	movwf	___flmul@temp
  4022  065A  0838               	movf	___flmul@temp,w
  4023  065B  00A8               	movwf	??___flmul
  4024  065C  0839               	movf	___flmul@temp+1,w
  4025  065D  00A9               	movwf	??___flmul+1
  4026  065E  01AA               	clrf	??___flmul+2
  4027  065F  01AB               	clrf	??___flmul+3
  4028  0660  0828               	movf	??___flmul,w
  4029  0661  07B4               	addwf	___flmul@prod,f
  4030  0662  0829               	movf	??___flmul+1,w
  4031  0663  1103               	clrz
  4032  0664  1803               	skipnc
  4033  0665  3E01               	addlw	1
  4034  0666  1903               	skipnz
  4035  0667  2E69               	goto	u2371
  4036  0668  07B5               	addwf	___flmul@prod+1,f
  4037  0669                     u2371:	
  4038  0669  082A               	movf	??___flmul+2,w
  4039  066A  1103               	clrz
  4040  066B  1803               	skipnc
  4041  066C  3E01               	addlw	1
  4042  066D  1903               	skipnz
  4043  066E  2E70               	goto	u2372
  4044  066F  07B6               	addwf	___flmul@prod+2,f
  4045  0670                     u2372:	
  4046  0670  082B               	movf	??___flmul+3,w
  4047  0671  1103               	clrz
  4048  0672  1803               	skipnc
  4049  0673  3E01               	addlw	1
  4050  0674  1903               	skipnz
  4051  0675  2E77               	goto	u2373
  4052  0676  07B7               	addwf	___flmul@prod+3,f
  4053  0677                     u2373:	
  4054  0677                     l2026:	
  4055  0677  0822               	movf	___flmul@b+2,w
  4056  0678  00A8               	movwf	??___flmul
  4057  0679  0828               	movf	??___flmul,w
  4058  067A  00F0               	movwf	__Umul8_16@multiplicand
  4059  067B  0825               	movf	___flmul@a+1,w
  4060  067C  120A  158A  2410  120A  118A  	fcall	__Umul8_16
  4061  0681  0871               	movf	?__Umul8_16+1,w
  4062  0682  1283               	bcf	3,5	;RP0=0, select bank0
  4063  0683  1303               	bcf	3,6	;RP1=0, select bank0
  4064  0684  00B9               	movwf	___flmul@temp+1
  4065  0685  0870               	movf	?__Umul8_16,w
  4066  0686  00B8               	movwf	___flmul@temp
  4067  0687                     l2028:	
  4068  0687  0838               	movf	___flmul@temp,w
  4069  0688  00A8               	movwf	??___flmul
  4070  0689  0839               	movf	___flmul@temp+1,w
  4071  068A  00A9               	movwf	??___flmul+1
  4072  068B  01AA               	clrf	??___flmul+2
  4073  068C  01AB               	clrf	??___flmul+3
  4074  068D  0828               	movf	??___flmul,w
  4075  068E  07B4               	addwf	___flmul@prod,f
  4076  068F  0829               	movf	??___flmul+1,w
  4077  0690  1103               	clrz
  4078  0691  1803               	skipnc
  4079  0692  3E01               	addlw	1
  4080  0693  1903               	skipnz
  4081  0694  2E96               	goto	u2381
  4082  0695  07B5               	addwf	___flmul@prod+1,f
  4083  0696                     u2381:	
  4084  0696  082A               	movf	??___flmul+2,w
  4085  0697  1103               	clrz
  4086  0698  1803               	skipnc
  4087  0699  3E01               	addlw	1
  4088  069A  1903               	skipnz
  4089  069B  2E9D               	goto	u2382
  4090  069C  07B6               	addwf	___flmul@prod+2,f
  4091  069D                     u2382:	
  4092  069D  082B               	movf	??___flmul+3,w
  4093  069E  1103               	clrz
  4094  069F  1803               	skipnc
  4095  06A0  3E01               	addlw	1
  4096  06A1  1903               	skipnz
  4097  06A2  2EA4               	goto	u2383
  4098  06A3  07B7               	addwf	___flmul@prod+3,f
  4099  06A4                     u2383:	
  4100  06A4  0822               	movf	___flmul@b+2,w
  4101  06A5  00A8               	movwf	??___flmul
  4102  06A6  0828               	movf	??___flmul,w
  4103  06A7  00F0               	movwf	__Umul8_16@multiplicand
  4104  06A8  0826               	movf	___flmul@a+2,w
  4105  06A9  120A  158A  2410  120A  118A  	fcall	__Umul8_16
  4106  06AE  0871               	movf	?__Umul8_16+1,w
  4107  06AF  1283               	bcf	3,5	;RP0=0, select bank0
  4108  06B0  1303               	bcf	3,6	;RP1=0, select bank0
  4109  06B1  00B9               	movwf	___flmul@temp+1
  4110  06B2  0870               	movf	?__Umul8_16,w
  4111  06B3  00B8               	movwf	___flmul@temp
  4112  06B4                     l2030:	
  4113  06B4  0838               	movf	___flmul@temp,w
  4114  06B5  00A8               	movwf	??___flmul
  4115  06B6  0839               	movf	___flmul@temp+1,w
  4116  06B7  00A9               	movwf	??___flmul+1
  4117  06B8  01AA               	clrf	??___flmul+2
  4118  06B9  01AB               	clrf	??___flmul+3
  4119  06BA  3008               	movlw	8
  4120  06BB                     u2395:	
  4121  06BB  1003               	clrc
  4122  06BC  0DA8               	rlf	??___flmul,f
  4123  06BD  0DA9               	rlf	??___flmul+1,f
  4124  06BE  0DAA               	rlf	??___flmul+2,f
  4125  06BF  0DAB               	rlf	??___flmul+3,f
  4126  06C0                     u2390:	
  4127  06C0  3EFF               	addlw	-1
  4128  06C1  1D03               	skipz
  4129  06C2  2EBB               	goto	u2395
  4130  06C3  0828               	movf	??___flmul,w
  4131  06C4  07B4               	addwf	___flmul@prod,f
  4132  06C5  0829               	movf	??___flmul+1,w
  4133  06C6  1103               	clrz
  4134  06C7  1803               	skipnc
  4135  06C8  3E01               	addlw	1
  4136  06C9  1903               	skipnz
  4137  06CA  2ECC               	goto	u2401
  4138  06CB  07B5               	addwf	___flmul@prod+1,f
  4139  06CC                     u2401:	
  4140  06CC  082A               	movf	??___flmul+2,w
  4141  06CD  1103               	clrz
  4142  06CE  1803               	skipnc
  4143  06CF  3E01               	addlw	1
  4144  06D0  1903               	skipnz
  4145  06D1  2ED3               	goto	u2402
  4146  06D2  07B6               	addwf	___flmul@prod+2,f
  4147  06D3                     u2402:	
  4148  06D3  082B               	movf	??___flmul+3,w
  4149  06D4  1103               	clrz
  4150  06D5  1803               	skipnc
  4151  06D6  3E01               	addlw	1
  4152  06D7  1903               	skipnz
  4153  06D8  2EDA               	goto	u2403
  4154  06D9  07B7               	addwf	___flmul@prod+3,f
  4155  06DA                     u2403:	
  4156  06DA                     l2032:	
  4157  06DA  082E               	movf	___flmul@grs,w
  4158  06DB  00A8               	movwf	??___flmul
  4159  06DC  082F               	movf	___flmul@grs+1,w
  4160  06DD  00A9               	movwf	??___flmul+1
  4161  06DE  0830               	movf	___flmul@grs+2,w
  4162  06DF  00AA               	movwf	??___flmul+2
  4163  06E0  0831               	movf	___flmul@grs+3,w
  4164  06E1  00AB               	movwf	??___flmul+3
  4165  06E2  3018               	movlw	24
  4166  06E3                     u2415:	
  4167  06E3  1003               	clrc
  4168  06E4  0CAB               	rrf	??___flmul+3,f
  4169  06E5  0CAA               	rrf	??___flmul+2,f
  4170  06E6  0CA9               	rrf	??___flmul+1,f
  4171  06E7  0CA8               	rrf	??___flmul,f
  4172  06E8                     u2410:	
  4173  06E8  3EFF               	addlw	-1
  4174  06E9  1D03               	skipz
  4175  06EA  2EE3               	goto	u2415
  4176  06EB  0828               	movf	??___flmul,w
  4177  06EC  07B4               	addwf	___flmul@prod,f
  4178  06ED  0829               	movf	??___flmul+1,w
  4179  06EE  1103               	clrz
  4180  06EF  1803               	skipnc
  4181  06F0  3E01               	addlw	1
  4182  06F1  1903               	skipnz
  4183  06F2  2EF4               	goto	u2421
  4184  06F3  07B5               	addwf	___flmul@prod+1,f
  4185  06F4                     u2421:	
  4186  06F4  082A               	movf	??___flmul+2,w
  4187  06F5  1103               	clrz
  4188  06F6  1803               	skipnc
  4189  06F7  3E01               	addlw	1
  4190  06F8  1903               	skipnz
  4191  06F9  2EFB               	goto	u2422
  4192  06FA  07B6               	addwf	___flmul@prod+2,f
  4193  06FB                     u2422:	
  4194  06FB  082B               	movf	??___flmul+3,w
  4195  06FC  1103               	clrz
  4196  06FD  1803               	skipnc
  4197  06FE  3E01               	addlw	1
  4198  06FF  1903               	skipnz
  4199  0700  2F02               	goto	u2423
  4200  0701  07B7               	addwf	___flmul@prod+3,f
  4201  0702                     u2423:	
  4202  0702                     l2034:	
  4203  0702  3008               	movlw	8
  4204  0703  00A8               	movwf	??___flmul
  4205  0704                     u2435:	
  4206  0704  1003               	clrc
  4207  0705  0DAE               	rlf	___flmul@grs,f
  4208  0706  0DAF               	rlf	___flmul@grs+1,f
  4209  0707  0DB0               	rlf	___flmul@grs+2,f
  4210  0708  0DB1               	rlf	___flmul@grs+3,f
  4211  0709  0BA8               	decfsz	??___flmul,f
  4212  070A  2F04               	goto	u2435
  4213  070B                     l2036:	
  4214  070B  0833               	movf	___flmul@bexp,w
  4215  070C  0732               	addwf	___flmul@aexp,w
  4216  070D  00A8               	movwf	??___flmul
  4217  070E  01A9               	clrf	??___flmul+1
  4218  070F  0DA9               	rlf	??___flmul+1,f
  4219  0710  0828               	movf	??___flmul,w
  4220  0711  3E82               	addlw	130
  4221  0712  00B8               	movwf	___flmul@temp
  4222  0713  0829               	movf	??___flmul+1,w
  4223  0714  1803               	skipnc
  4224  0715  3E01               	addlw	1
  4225  0716  3EFF               	addlw	255
  4226  0717  00B9               	movwf	___flmul@temp+1
  4227  0718  2F36               	goto	l2048
  4228  0719                     l2038:	
  4229  0719  3001               	movlw	1
  4230  071A  00A8               	movwf	??___flmul
  4231  071B                     u2445:	
  4232  071B  1003               	clrc
  4233  071C  0DB4               	rlf	___flmul@prod,f
  4234  071D  0DB5               	rlf	___flmul@prod+1,f
  4235  071E  0DB6               	rlf	___flmul@prod+2,f
  4236  071F  0DB7               	rlf	___flmul@prod+3,f
  4237  0720  0BA8               	decfsz	??___flmul,f
  4238  0721  2F1B               	goto	u2445
  4239  0722                     l2040:	
  4240  0722  1FB1               	btfss	___flmul@grs+3,7
  4241  0723  2F25               	goto	u2451
  4242  0724  2F26               	goto	u2450
  4243  0725                     u2451:	
  4244  0725  2F27               	goto	l2044
  4245  0726                     u2450:	
  4246  0726                     l2042:	
  4247  0726  1434               	bsf	___flmul@prod,0
  4248  0727                     l2044:	
  4249  0727  3001               	movlw	1
  4250  0728  00A8               	movwf	??___flmul
  4251  0729                     u2465:	
  4252  0729  1003               	clrc
  4253  072A  0DAE               	rlf	___flmul@grs,f
  4254  072B  0DAF               	rlf	___flmul@grs+1,f
  4255  072C  0DB0               	rlf	___flmul@grs+2,f
  4256  072D  0DB1               	rlf	___flmul@grs+3,f
  4257  072E  0BA8               	decfsz	??___flmul,f
  4258  072F  2F29               	goto	u2465
  4259  0730                     l2046:	
  4260  0730  30FF               	movlw	255
  4261  0731  07B8               	addwf	___flmul@temp,f
  4262  0732  1803               	skipnc
  4263  0733  0AB9               	incf	___flmul@temp+1,f
  4264  0734  30FF               	movlw	255
  4265  0735  07B9               	addwf	___flmul@temp+1,f
  4266  0736                     l2048:	
  4267  0736  1FB6               	btfss	___flmul@prod+2,7
  4268  0737  2F39               	goto	u2471
  4269  0738  2F3A               	goto	u2470
  4270  0739                     u2471:	
  4271  0739  2F19               	goto	l2038
  4272  073A                     u2470:	
  4273  073A                     l2050:	
  4274  073A  01B2               	clrf	___flmul@aexp
  4275  073B                     l2052:	
  4276  073B  1FB1               	btfss	___flmul@grs+3,7
  4277  073C  2F3E               	goto	u2481
  4278  073D  2F3F               	goto	u2480
  4279  073E                     u2481:	
  4280  073E  2F5B               	goto	l2060
  4281  073F                     u2480:	
  4282  073F                     l2054:	
  4283  073F  30FF               	movlw	255
  4284  0740  052E               	andwf	___flmul@grs,w
  4285  0741  00A8               	movwf	??___flmul
  4286  0742  30FF               	movlw	255
  4287  0743  052F               	andwf	___flmul@grs+1,w
  4288  0744  00A9               	movwf	??___flmul+1
  4289  0745  30FF               	movlw	255
  4290  0746  0530               	andwf	___flmul@grs+2,w
  4291  0747  00AA               	movwf	??___flmul+2
  4292  0748  307F               	movlw	127
  4293  0749  0531               	andwf	___flmul@grs+3,w
  4294  074A  00AB               	movwf	??___flmul+3
  4295  074B  082B               	movf	??___flmul+3,w
  4296  074C  042A               	iorwf	??___flmul+2,w
  4297  074D  0429               	iorwf	??___flmul+1,w
  4298  074E  0428               	iorwf	??___flmul,w
  4299  074F  1903               	skipnz
  4300  0750  2F52               	goto	u2491
  4301  0751  2F53               	goto	u2490
  4302  0752                     u2491:	
  4303  0752  2F56               	goto	l638
  4304  0753                     u2490:	
  4305  0753                     l2056:	
  4306  0753  01B2               	clrf	___flmul@aexp
  4307  0754  0AB2               	incf	___flmul@aexp,f
  4308  0755  2F5B               	goto	l2060
  4309  0756                     l638:	
  4310  0756  1C34               	btfss	___flmul@prod,0
  4311  0757  2F59               	goto	u2501
  4312  0758  2F5A               	goto	u2500
  4313  0759                     u2501:	
  4314  0759  2F5B               	goto	l2060
  4315  075A                     u2500:	
  4316  075A  2F53               	goto	l2056
  4317  075B                     l2060:	
  4318  075B  0832               	movf	___flmul@aexp,w
  4319  075C  1903               	btfsc	3,2
  4320  075D  2F5F               	goto	u2511
  4321  075E  2F60               	goto	u2510
  4322  075F                     u2511:	
  4323  075F  2F91               	goto	l2070
  4324  0760                     u2510:	
  4325  0760                     l2062:	
  4326  0760  3001               	movlw	1
  4327  0761  07B4               	addwf	___flmul@prod,f
  4328  0762  3000               	movlw	0
  4329  0763  1803               	skipnc
  4330  0764  3001               	movlw	1
  4331  0765  07B5               	addwf	___flmul@prod+1,f
  4332  0766  3000               	movlw	0
  4333  0767  1803               	skipnc
  4334  0768  3001               	movlw	1
  4335  0769  07B6               	addwf	___flmul@prod+2,f
  4336  076A  3000               	movlw	0
  4337  076B  1803               	skipnc
  4338  076C  3001               	movlw	1
  4339  076D  07B7               	addwf	___flmul@prod+3,f
  4340  076E                     l2064:	
  4341  076E  1C37               	btfss	___flmul@prod+3,0
  4342  076F  2F71               	goto	u2521
  4343  0770  2F72               	goto	u2520
  4344  0771                     u2521:	
  4345  0771  2F91               	goto	l2070
  4346  0772                     u2520:	
  4347  0772                     l2066:	
  4348  0772  0834               	movf	___flmul@prod,w
  4349  0773  00A8               	movwf	??___flmul
  4350  0774  0835               	movf	___flmul@prod+1,w
  4351  0775  00A9               	movwf	??___flmul+1
  4352  0776  0836               	movf	___flmul@prod+2,w
  4353  0777  00AA               	movwf	??___flmul+2
  4354  0778  0837               	movf	___flmul@prod+3,w
  4355  0779  00AB               	movwf	??___flmul+3
  4356  077A  3001               	movlw	1
  4357  077B  00AC               	movwf	??___flmul+4
  4358  077C                     u2535:	
  4359  077C  0D2B               	rlf	??___flmul+3,w
  4360  077D  0CAB               	rrf	??___flmul+3,f
  4361  077E  0CAA               	rrf	??___flmul+2,f
  4362  077F  0CA9               	rrf	??___flmul+1,f
  4363  0780  0CA8               	rrf	??___flmul,f
  4364  0781                     u2530:	
  4365  0781  0BAC               	decfsz	??___flmul+4,f
  4366  0782  2F7C               	goto	u2535
  4367  0783  082B               	movf	??___flmul+3,w
  4368  0784  00B7               	movwf	___flmul@prod+3
  4369  0785  082A               	movf	??___flmul+2,w
  4370  0786  00B6               	movwf	___flmul@prod+2
  4371  0787  0829               	movf	??___flmul+1,w
  4372  0788  00B5               	movwf	___flmul@prod+1
  4373  0789  0828               	movf	??___flmul,w
  4374  078A  00B4               	movwf	___flmul@prod
  4375  078B                     l2068:	
  4376  078B  3001               	movlw	1
  4377  078C  07B8               	addwf	___flmul@temp,f
  4378  078D  1803               	skipnc
  4379  078E  0AB9               	incf	___flmul@temp+1,f
  4380  078F  3000               	movlw	0
  4381  0790  07B9               	addwf	___flmul@temp+1,f
  4382  0791                     l2070:	
  4383  0791  0839               	movf	___flmul@temp+1,w
  4384  0792  3A80               	xorlw	128
  4385  0793  00FF               	movwf	btemp+1
  4386  0794  3080               	movlw	128
  4387  0795  027F               	subwf	btemp+1,w
  4388  0796  1D03               	skipz
  4389  0797  2F9A               	goto	u2545
  4390  0798  30FF               	movlw	255
  4391  0799  0238               	subwf	___flmul@temp,w
  4392  079A                     u2545:	
  4393  079A  1C03               	skipc
  4394  079B  2F9D               	goto	u2541
  4395  079C  2F9E               	goto	u2540
  4396  079D                     u2541:	
  4397  079D  2FA9               	goto	l2074
  4398  079E                     u2540:	
  4399  079E                     l2072:	
  4400  079E  307F               	movlw	127
  4401  079F  1283               	bcf	3,5	;RP0=0, select bank0
  4402  07A0  1303               	bcf	3,6	;RP1=0, select bank0
  4403  07A1  00B7               	movwf	___flmul@prod+3
  4404  07A2  3080               	movlw	128
  4405  07A3  00B6               	movwf	___flmul@prod+2
  4406  07A4  3000               	movlw	0
  4407  07A5  00B5               	movwf	___flmul@prod+1
  4408  07A6  3000               	movlw	0
  4409  07A7  00B4               	movwf	___flmul@prod
  4410  07A8  2FDE               	goto	l644
  4411  07A9                     l2074:	
  4412  07A9  1283               	bcf	3,5	;RP0=0, select bank0
  4413  07AA  1303               	bcf	3,6	;RP1=0, select bank0
  4414  07AB  0839               	movf	___flmul@temp+1,w
  4415  07AC  3A80               	xorlw	128
  4416  07AD  00FF               	movwf	btemp+1
  4417  07AE  3080               	movlw	128
  4418  07AF  027F               	subwf	btemp+1,w
  4419  07B0  1D03               	skipz
  4420  07B1  2FB4               	goto	u2555
  4421  07B2  3001               	movlw	1
  4422  07B3  0238               	subwf	___flmul@temp,w
  4423  07B4                     u2555:	
  4424  07B4  1803               	skipnc
  4425  07B5  2FB7               	goto	u2551
  4426  07B6  2FB8               	goto	u2550
  4427  07B7                     u2551:	
  4428  07B7  2FC4               	goto	l2080
  4429  07B8                     u2550:	
  4430  07B8                     l2076:	
  4431  07B8  3000               	movlw	0
  4432  07B9  1283               	bcf	3,5	;RP0=0, select bank0
  4433  07BA  1303               	bcf	3,6	;RP1=0, select bank0
  4434  07BB  00B7               	movwf	___flmul@prod+3
  4435  07BC  3000               	movlw	0
  4436  07BD  00B6               	movwf	___flmul@prod+2
  4437  07BE  3000               	movlw	0
  4438  07BF  00B5               	movwf	___flmul@prod+1
  4439  07C0  3000               	movlw	0
  4440  07C1  00B4               	movwf	___flmul@prod
  4441  07C2                     l2078:	
  4442  07C2  01AD               	clrf	___flmul@sign
  4443  07C3  2FDE               	goto	l644
  4444  07C4                     l2080:	
  4445  07C4  1283               	bcf	3,5	;RP0=0, select bank0
  4446  07C5  1303               	bcf	3,6	;RP1=0, select bank0
  4447  07C6  0838               	movf	___flmul@temp,w
  4448  07C7  00A8               	movwf	??___flmul
  4449  07C8  0828               	movf	??___flmul,w
  4450  07C9  00B3               	movwf	___flmul@bexp
  4451  07CA  30FF               	movlw	255
  4452  07CB  05B4               	andwf	___flmul@prod,f
  4453  07CC  30FF               	movlw	255
  4454  07CD  05B5               	andwf	___flmul@prod+1,f
  4455  07CE  307F               	movlw	127
  4456  07CF  05B6               	andwf	___flmul@prod+2,f
  4457  07D0  3000               	movlw	0
  4458  07D1  05B7               	andwf	___flmul@prod+3,f
  4459  07D2                     l2082:	
  4460  07D2  1C33               	btfss	___flmul@bexp,0
  4461  07D3  2FD5               	goto	u2561
  4462  07D4  2FD6               	goto	u2560
  4463  07D5                     u2561:	
  4464  07D5  2FD7               	goto	l2086
  4465  07D6                     u2560:	
  4466  07D6                     l2084:	
  4467  07D6  17B6               	bsf	___flmul@prod+2,7
  4468  07D7                     l2086:	
  4469  07D7  0833               	movf	___flmul@bexp,w
  4470  07D8  00A8               	movwf	??___flmul
  4471  07D9  1003               	clrc
  4472  07DA  0C28               	rrf	??___flmul,w
  4473  07DB  00A9               	movwf	??___flmul+1
  4474  07DC  0829               	movf	??___flmul+1,w
  4475  07DD  00B7               	movwf	___flmul@prod+3
  4476  07DE                     l644:	
  4477  07DE  082D               	movf	___flmul@sign,w
  4478  07DF  00A8               	movwf	??___flmul
  4479  07E0  0828               	movf	??___flmul,w
  4480  07E1  04B7               	iorwf	___flmul@prod+3,f
  4481  07E2                     l2088:	
  4482  07E2  0837               	movf	___flmul@prod+3,w
  4483  07E3  00A3               	movwf	?___flmul+3
  4484  07E4  0836               	movf	___flmul@prod+2,w
  4485  07E5  00A2               	movwf	?___flmul+2
  4486  07E6  0835               	movf	___flmul@prod+1,w
  4487  07E7  00A1               	movwf	?___flmul+1
  4488  07E8  0834               	movf	___flmul@prod,w
  4489  07E9  00A0               	movwf	?___flmul
  4490  07EA                     l632:	
  4491  07EA  0008               	return
  4492  07EB                     __end_of___flmul:	
  4493                           
  4494                           	psect	text17
  4495  0C10                     __ptext17:	
  4496 ;; *************** function __Umul8_16 *****************
  4497 ;; Defined at:
  4498 ;;		line 4 in file "C:\Program Files (x86)\Microchip\xc8\v2.10\pic\sources\c90\common\Umul8_16.c"
  4499 ;; Parameters:    Size  Location     Type
  4500 ;;  multiplier      1    wreg     unsigned char 
  4501 ;;  multiplicand    1    0[COMMON] unsigned char 
  4502 ;; Auto vars:     Size  Location     Type
  4503 ;;  multiplier      1    8[COMMON] unsigned char 
  4504 ;;  word_mpld       2    6[COMMON] unsigned int 
  4505 ;;  product         2    4[COMMON] unsigned int 
  4506 ;; Return value:  Size  Location     Type
  4507 ;;                  2    0[COMMON] unsigned int 
  4508 ;; Registers used:
  4509 ;;		wreg, status,2, status,0
  4510 ;; Tracked objects:
  4511 ;;		On entry : 0/0
  4512 ;;		On exit  : 0/0
  4513 ;;		Unchanged: 0/0
  4514 ;; Data sizes:     COMMON   BANK0   BANK1   BANK3   BANK2
  4515 ;;      Params:         2       0       0       0       0
  4516 ;;      Locals:         5       0       0       0       0
  4517 ;;      Temps:          2       0       0       0       0
  4518 ;;      Totals:         9       0       0       0       0
  4519 ;;Total ram usage:        9 bytes
  4520 ;; Hardware stack levels used:    1
  4521 ;; This function calls:
  4522 ;;		Nothing
  4523 ;; This function is called by:
  4524 ;;		___flmul
  4525 ;; This function uses a non-reentrant model
  4526 ;;
  4527                           
  4528                           
  4529                           ;psect for function __Umul8_16
  4530  0C10                     __Umul8_16:	
  4531                           
  4532                           ;incstack = 0
  4533                           ; Regs used in __Umul8_16: [wreg+status,2+status,0]
  4534                           ;__Umul8_16@multiplier stored from wreg
  4535  0C10  00F8               	movwf	__Umul8_16@multiplier
  4536  0C11                     l1600:	
  4537  0C11  01F4               	clrf	__Umul8_16@product
  4538  0C12  01F5               	clrf	__Umul8_16@product+1
  4539  0C13                     l1602:	
  4540  0C13  0870               	movf	__Umul8_16@multiplicand,w
  4541  0C14  00F2               	movwf	??__Umul8_16
  4542  0C15  01F3               	clrf	??__Umul8_16+1
  4543  0C16  0872               	movf	??__Umul8_16,w
  4544  0C17  00F6               	movwf	__Umul8_16@word_mpld
  4545  0C18  0873               	movf	??__Umul8_16+1,w
  4546  0C19  00F7               	movwf	__Umul8_16@word_mpld+1
  4547  0C1A                     l1604:	
  4548  0C1A  1C78               	btfss	__Umul8_16@multiplier,0
  4549  0C1B  2C1D               	goto	u1511
  4550  0C1C  2C1E               	goto	u1510
  4551  0C1D                     u1511:	
  4552  0C1D  2C24               	goto	l718
  4553  0C1E                     u1510:	
  4554  0C1E                     l1606:	
  4555  0C1E  0876               	movf	__Umul8_16@word_mpld,w
  4556  0C1F  07F4               	addwf	__Umul8_16@product,f
  4557  0C20  1803               	skipnc
  4558  0C21  0AF5               	incf	__Umul8_16@product+1,f
  4559  0C22  0877               	movf	__Umul8_16@word_mpld+1,w
  4560  0C23  07F5               	addwf	__Umul8_16@product+1,f
  4561  0C24                     l718:	
  4562  0C24  3001               	movlw	1
  4563  0C25                     u1525:	
  4564  0C25  1003               	clrc
  4565  0C26  0DF6               	rlf	__Umul8_16@word_mpld,f
  4566  0C27  0DF7               	rlf	__Umul8_16@word_mpld+1,f
  4567  0C28  3EFF               	addlw	-1
  4568  0C29  1D03               	skipz
  4569  0C2A  2C25               	goto	u1525
  4570  0C2B  1003               	clrc
  4571  0C2C  0CF8               	rrf	__Umul8_16@multiplier,f
  4572  0C2D                     l1608:	
  4573  0C2D  0878               	movf	__Umul8_16@multiplier,w
  4574  0C2E  1D03               	btfss	3,2
  4575  0C2F  2C31               	goto	u1531
  4576  0C30  2C32               	goto	u1530
  4577  0C31                     u1531:	
  4578  0C31  2C1A               	goto	l1604
  4579  0C32                     u1530:	
  4580  0C32                     l1610:	
  4581  0C32  0875               	movf	__Umul8_16@product+1,w
  4582  0C33  00F1               	movwf	?__Umul8_16+1
  4583  0C34  0874               	movf	__Umul8_16@product,w
  4584  0C35  00F0               	movwf	?__Umul8_16
  4585  0C36                     l720:	
  4586  0C36  0008               	return
  4587  0C37                     __end_of__Umul8_16:	
  4588                           
  4589                           	psect	text18
  4590  0E23                     __ptext18:	
  4591 ;; *************** function ___fldiv *****************
  4592 ;; Defined at:
  4593 ;;		line 8 in file "C:\Program Files (x86)\Microchip\xc8\v2.10\pic\sources\c90\common\sprcdiv.c"
  4594 ;; Parameters:    Size  Location     Type
  4595 ;;  a               4   26[BANK0 ] unsigned int 
  4596 ;;  b               4   30[BANK0 ] unsigned int 
  4597 ;; Auto vars:     Size  Location     Type
  4598 ;;  grs             4   46[BANK0 ] unsigned long 
  4599 ;;  rem             4   39[BANK0 ] unsigned long 
  4600 ;;  new_exp         2   44[BANK0 ] int 
  4601 ;;  aexp            1   51[BANK0 ] unsigned char 
  4602 ;;  bexp            1   50[BANK0 ] unsigned char 
  4603 ;;  sign            1   43[BANK0 ] unsigned char 
  4604 ;; Return value:  Size  Location     Type
  4605 ;;                  4   26[BANK0 ] unsigned char 
  4606 ;; Registers used:
  4607 ;;		wreg, status,2, status,0, btemp+1
  4608 ;; Tracked objects:
  4609 ;;		On entry : 0/0
  4610 ;;		On exit  : 0/0
  4611 ;;		Unchanged: 0/0
  4612 ;; Data sizes:     COMMON   BANK0   BANK1   BANK3   BANK2
  4613 ;;      Params:         0       8       0       0       0
  4614 ;;      Locals:         0      13       0       0       0
  4615 ;;      Temps:          0       5       0       0       0
  4616 ;;      Totals:         0      26       0       0       0
  4617 ;;Total ram usage:       26 bytes
  4618 ;; Hardware stack levels used:    1
  4619 ;; This function calls:
  4620 ;;		Nothing
  4621 ;; This function is called by:
  4622 ;;		_ADC
  4623 ;; This function uses a non-reentrant model
  4624 ;;
  4625                           
  4626                           
  4627                           ;psect for function ___fldiv
  4628  0E23                     ___fldiv:	
  4629  0E23                     l1810:	
  4630                           ;incstack = 0
  4631                           ; Regs used in ___fldiv: [wreg+status,2+status,0+btemp+1]
  4632                           
  4633  0E23  1283               	bcf	3,5	;RP0=0, select bank0
  4634  0E24  1303               	bcf	3,6	;RP1=0, select bank0
  4635  0E25  0841               	movf	___fldiv@b+3,w
  4636  0E26  3980               	andlw	128
  4637  0E27  00C2               	movwf	??___fldiv
  4638  0E28  0842               	movf	??___fldiv,w
  4639  0E29  00CB               	movwf	___fldiv@sign
  4640  0E2A                     l1812:	
  4641  0E2A  0841               	movf	___fldiv@b+3,w
  4642  0E2B  00C2               	movwf	??___fldiv
  4643  0E2C  0742               	addwf	??___fldiv,w
  4644  0E2D  00C3               	movwf	??___fldiv+1
  4645  0E2E  0843               	movf	??___fldiv+1,w
  4646  0E2F  00D2               	movwf	___fldiv@bexp
  4647  0E30                     l1814:	
  4648  0E30  1FC0               	btfss	___fldiv@b+2,7
  4649  0E31  2E33               	goto	u1911
  4650  0E32  2E34               	goto	u1910
  4651  0E33                     u1911:	
  4652  0E33  2E35               	goto	l1818
  4653  0E34                     u1910:	
  4654  0E34                     l1816:	
  4655  0E34  1452               	bsf	___fldiv@bexp,0
  4656  0E35                     l1818:	
  4657  0E35  0852               	movf	___fldiv@bexp,w
  4658  0E36  1903               	btfsc	3,2
  4659  0E37  2E39               	goto	u1921
  4660  0E38  2E3A               	goto	u1920
  4661  0E39                     u1921:	
  4662  0E39  2E4A               	goto	l1828
  4663  0E3A                     u1920:	
  4664  0E3A                     l1820:	
  4665  0E3A  0A52               	incf	___fldiv@bexp,w
  4666  0E3B  1D03               	btfss	3,2
  4667  0E3C  2E3E               	goto	u1931
  4668  0E3D  2E3F               	goto	u1930
  4669  0E3E                     u1931:	
  4670  0E3E  2E47               	goto	l1824
  4671  0E3F                     u1930:	
  4672  0E3F                     l1822:	
  4673  0E3F  3000               	movlw	0
  4674  0E40  00C1               	movwf	___fldiv@b+3
  4675  0E41  3000               	movlw	0
  4676  0E42  00C0               	movwf	___fldiv@b+2
  4677  0E43  3000               	movlw	0
  4678  0E44  00BF               	movwf	___fldiv@b+1
  4679  0E45  3000               	movlw	0
  4680  0E46  00BE               	movwf	___fldiv@b
  4681  0E47                     l1824:	
  4682  0E47  17C0               	bsf	___fldiv@b+2,7
  4683  0E48                     l1826:	
  4684  0E48  01C1               	clrf	___fldiv@b+3
  4685  0E49  2E52               	goto	l1830
  4686  0E4A                     l1828:	
  4687  0E4A  3000               	movlw	0
  4688  0E4B  00C1               	movwf	___fldiv@b+3
  4689  0E4C  3000               	movlw	0
  4690  0E4D  00C0               	movwf	___fldiv@b+2
  4691  0E4E  3000               	movlw	0
  4692  0E4F  00BF               	movwf	___fldiv@b+1
  4693  0E50  3000               	movlw	0
  4694  0E51  00BE               	movwf	___fldiv@b
  4695  0E52                     l1830:	
  4696  0E52  083D               	movf	___fldiv@a+3,w
  4697  0E53  3980               	andlw	128
  4698  0E54  00C2               	movwf	??___fldiv
  4699  0E55  0842               	movf	??___fldiv,w
  4700  0E56  06CB               	xorwf	___fldiv@sign,f
  4701  0E57                     l1832:	
  4702  0E57  083D               	movf	___fldiv@a+3,w
  4703  0E58  00C2               	movwf	??___fldiv
  4704  0E59  0742               	addwf	??___fldiv,w
  4705  0E5A  00C3               	movwf	??___fldiv+1
  4706  0E5B  0843               	movf	??___fldiv+1,w
  4707  0E5C  00D3               	movwf	___fldiv@aexp
  4708  0E5D                     l1834:	
  4709  0E5D  1FBC               	btfss	___fldiv@a+2,7
  4710  0E5E  2E60               	goto	u1941
  4711  0E5F  2E61               	goto	u1940
  4712  0E60                     u1941:	
  4713  0E60  2E62               	goto	l1838
  4714  0E61                     u1940:	
  4715  0E61                     l1836:	
  4716  0E61  1453               	bsf	___fldiv@aexp,0
  4717  0E62                     l1838:	
  4718  0E62  0853               	movf	___fldiv@aexp,w
  4719  0E63  1903               	btfsc	3,2
  4720  0E64  2E66               	goto	u1951
  4721  0E65  2E67               	goto	u1950
  4722  0E66                     u1951:	
  4723  0E66  2E77               	goto	l1848
  4724  0E67                     u1950:	
  4725  0E67                     l1840:	
  4726  0E67  0A53               	incf	___fldiv@aexp,w
  4727  0E68  1D03               	btfss	3,2
  4728  0E69  2E6B               	goto	u1961
  4729  0E6A  2E6C               	goto	u1960
  4730  0E6B                     u1961:	
  4731  0E6B  2E74               	goto	l1844
  4732  0E6C                     u1960:	
  4733  0E6C                     l1842:	
  4734  0E6C  3000               	movlw	0
  4735  0E6D  00BD               	movwf	___fldiv@a+3
  4736  0E6E  3000               	movlw	0
  4737  0E6F  00BC               	movwf	___fldiv@a+2
  4738  0E70  3000               	movlw	0
  4739  0E71  00BB               	movwf	___fldiv@a+1
  4740  0E72  3000               	movlw	0
  4741  0E73  00BA               	movwf	___fldiv@a
  4742  0E74                     l1844:	
  4743  0E74  17BC               	bsf	___fldiv@a+2,7
  4744  0E75                     l1846:	
  4745  0E75  01BD               	clrf	___fldiv@a+3
  4746  0E76  2E7F               	goto	l592
  4747  0E77                     l1848:	
  4748  0E77  3000               	movlw	0
  4749  0E78  00BD               	movwf	___fldiv@a+3
  4750  0E79  3000               	movlw	0
  4751  0E7A  00BC               	movwf	___fldiv@a+2
  4752  0E7B  3000               	movlw	0
  4753  0E7C  00BB               	movwf	___fldiv@a+1
  4754  0E7D  3000               	movlw	0
  4755  0E7E  00BA               	movwf	___fldiv@a
  4756  0E7F                     l592:	
  4757  0E7F  083D               	movf	___fldiv@a+3,w
  4758  0E80  043C               	iorwf	___fldiv@a+2,w
  4759  0E81  043B               	iorwf	___fldiv@a+1,w
  4760  0E82  043A               	iorwf	___fldiv@a,w
  4761  0E83  1D03               	skipz
  4762  0E84  2E86               	goto	u1971
  4763  0E85  2E87               	goto	u1970
  4764  0E86                     u1971:	
  4765  0E86  2EA0               	goto	l1858
  4766  0E87                     u1970:	
  4767  0E87                     l1850:	
  4768  0E87  3000               	movlw	0
  4769  0E88  00C1               	movwf	___fldiv@b+3
  4770  0E89  3000               	movlw	0
  4771  0E8A  00C0               	movwf	___fldiv@b+2
  4772  0E8B  3000               	movlw	0
  4773  0E8C  00BF               	movwf	___fldiv@b+1
  4774  0E8D  3000               	movlw	0
  4775  0E8E  00BE               	movwf	___fldiv@b
  4776  0E8F  3080               	movlw	128
  4777  0E90  04C0               	iorwf	___fldiv@b+2,f
  4778  0E91  307F               	movlw	127
  4779  0E92  04C1               	iorwf	___fldiv@b+3,f
  4780  0E93                     l1852:	
  4781  0E93  084B               	movf	___fldiv@sign,w
  4782  0E94  00C2               	movwf	??___fldiv
  4783  0E95  0842               	movf	??___fldiv,w
  4784  0E96  04C1               	iorwf	___fldiv@b+3,f
  4785  0E97                     l1854:	
  4786  0E97  0841               	movf	___fldiv@b+3,w
  4787  0E98  00BD               	movwf	?___fldiv+3
  4788  0E99  0840               	movf	___fldiv@b+2,w
  4789  0E9A  00BC               	movwf	?___fldiv+2
  4790  0E9B  083F               	movf	___fldiv@b+1,w
  4791  0E9C  00BB               	movwf	?___fldiv+1
  4792  0E9D  083E               	movf	___fldiv@b,w
  4793  0E9E  00BA               	movwf	?___fldiv
  4794  0E9F  2FFF               	goto	l594
  4795  0EA0                     l1858:	
  4796  0EA0  0852               	movf	___fldiv@bexp,w
  4797  0EA1  1D03               	btfss	3,2
  4798  0EA2  2EA4               	goto	u1981
  4799  0EA3  2EA5               	goto	u1980
  4800  0EA4                     u1981:	
  4801  0EA4  2EAE               	goto	l1864
  4802  0EA5                     u1980:	
  4803  0EA5                     l1860:	
  4804  0EA5  3000               	movlw	0
  4805  0EA6  00BD               	movwf	?___fldiv+3
  4806  0EA7  3000               	movlw	0
  4807  0EA8  00BC               	movwf	?___fldiv+2
  4808  0EA9  3000               	movlw	0
  4809  0EAA  00BB               	movwf	?___fldiv+1
  4810  0EAB  3000               	movlw	0
  4811  0EAC  00BA               	movwf	?___fldiv
  4812  0EAD  2FFF               	goto	l594
  4813  0EAE                     l1864:	
  4814  0EAE  0852               	movf	___fldiv@bexp,w
  4815  0EAF  00C2               	movwf	??___fldiv
  4816  0EB0  01C3               	clrf	??___fldiv+1
  4817  0EB1  0843               	movf	??___fldiv+1,w
  4818  0EB2  00C5               	movwf	??___fldiv+3
  4819  0EB3  0853               	movf	___fldiv@aexp,w
  4820  0EB4  0242               	subwf	??___fldiv,w
  4821  0EB5  00C4               	movwf	??___fldiv+2
  4822  0EB6  1C03               	skipc
  4823  0EB7  03C5               	decf	??___fldiv+3,f
  4824  0EB8  0844               	movf	??___fldiv+2,w
  4825  0EB9  3E7F               	addlw	127
  4826  0EBA  00CC               	movwf	___fldiv@new_exp
  4827  0EBB  0845               	movf	??___fldiv+3,w
  4828  0EBC  1803               	skipnc
  4829  0EBD  3E01               	addlw	1
  4830  0EBE  3E00               	addlw	0
  4831  0EBF  00CD               	movwf	___fldiv@new_exp+1
  4832  0EC0                     l1866:	
  4833  0EC0  0841               	movf	___fldiv@b+3,w
  4834  0EC1  00CA               	movwf	___fldiv@rem+3
  4835  0EC2  0840               	movf	___fldiv@b+2,w
  4836  0EC3  00C9               	movwf	___fldiv@rem+2
  4837  0EC4  083F               	movf	___fldiv@b+1,w
  4838  0EC5  00C8               	movwf	___fldiv@rem+1
  4839  0EC6  083E               	movf	___fldiv@b,w
  4840  0EC7  00C7               	movwf	___fldiv@rem
  4841  0EC8                     l1868:	
  4842  0EC8  3000               	movlw	0
  4843  0EC9  00C1               	movwf	___fldiv@b+3
  4844  0ECA  3000               	movlw	0
  4845  0ECB  00C0               	movwf	___fldiv@b+2
  4846  0ECC  3000               	movlw	0
  4847  0ECD  00BF               	movwf	___fldiv@b+1
  4848  0ECE  3000               	movlw	0
  4849  0ECF  00BE               	movwf	___fldiv@b
  4850  0ED0                     l1870:	
  4851  0ED0  3000               	movlw	0
  4852  0ED1  00D1               	movwf	___fldiv@grs+3
  4853  0ED2  3000               	movlw	0
  4854  0ED3  00D0               	movwf	___fldiv@grs+2
  4855  0ED4  3000               	movlw	0
  4856  0ED5  00CF               	movwf	___fldiv@grs+1
  4857  0ED6  3000               	movlw	0
  4858  0ED7  00CE               	movwf	___fldiv@grs
  4859  0ED8                     l1872:	
  4860  0ED8  01D3               	clrf	___fldiv@aexp
  4861  0ED9  2F24               	goto	l1892
  4862  0EDA                     l1874:	
  4863  0EDA  0853               	movf	___fldiv@aexp,w
  4864  0EDB  1903               	btfsc	3,2
  4865  0EDC  2EDE               	goto	u1991
  4866  0EDD  2EDF               	goto	u1990
  4867  0EDE                     u1991:	
  4868  0EDE  2EFF               	goto	l1884
  4869  0EDF                     u1990:	
  4870  0EDF                     l1876:	
  4871  0EDF  3001               	movlw	1
  4872  0EE0  00C2               	movwf	??___fldiv
  4873  0EE1                     u2005:	
  4874  0EE1  1003               	clrc
  4875  0EE2  0DC7               	rlf	___fldiv@rem,f
  4876  0EE3  0DC8               	rlf	___fldiv@rem+1,f
  4877  0EE4  0DC9               	rlf	___fldiv@rem+2,f
  4878  0EE5  0DCA               	rlf	___fldiv@rem+3,f
  4879  0EE6  0BC2               	decfsz	??___fldiv,f
  4880  0EE7  2EE1               	goto	u2005
  4881  0EE8  3001               	movlw	1
  4882  0EE9  00C2               	movwf	??___fldiv
  4883  0EEA                     u2015:	
  4884  0EEA  1003               	clrc
  4885  0EEB  0DBE               	rlf	___fldiv@b,f
  4886  0EEC  0DBF               	rlf	___fldiv@b+1,f
  4887  0EED  0DC0               	rlf	___fldiv@b+2,f
  4888  0EEE  0DC1               	rlf	___fldiv@b+3,f
  4889  0EEF  0BC2               	decfsz	??___fldiv,f
  4890  0EF0  2EEA               	goto	u2015
  4891  0EF1                     l1878:	
  4892  0EF1  1FD1               	btfss	___fldiv@grs+3,7
  4893  0EF2  2EF4               	goto	u2021
  4894  0EF3  2EF5               	goto	u2020
  4895  0EF4                     u2021:	
  4896  0EF4  2EF6               	goto	l1882
  4897  0EF5                     u2020:	
  4898  0EF5                     l1880:	
  4899  0EF5  143E               	bsf	___fldiv@b,0
  4900  0EF6                     l1882:	
  4901  0EF6  3001               	movlw	1
  4902  0EF7  00C2               	movwf	??___fldiv
  4903  0EF8                     u2035:	
  4904  0EF8  1003               	clrc
  4905  0EF9  0DCE               	rlf	___fldiv@grs,f
  4906  0EFA  0DCF               	rlf	___fldiv@grs+1,f
  4907  0EFB  0DD0               	rlf	___fldiv@grs+2,f
  4908  0EFC  0DD1               	rlf	___fldiv@grs+3,f
  4909  0EFD  0BC2               	decfsz	??___fldiv,f
  4910  0EFE  2EF8               	goto	u2035
  4911  0EFF                     l1884:	
  4912  0EFF  083D               	movf	___fldiv@a+3,w
  4913  0F00  024A               	subwf	___fldiv@rem+3,w
  4914  0F01  1D03               	skipz
  4915  0F02  2F0D               	goto	u2045
  4916  0F03  083C               	movf	___fldiv@a+2,w
  4917  0F04  0249               	subwf	___fldiv@rem+2,w
  4918  0F05  1D03               	skipz
  4919  0F06  2F0D               	goto	u2045
  4920  0F07  083B               	movf	___fldiv@a+1,w
  4921  0F08  0248               	subwf	___fldiv@rem+1,w
  4922  0F09  1D03               	skipz
  4923  0F0A  2F0D               	goto	u2045
  4924  0F0B  083A               	movf	___fldiv@a,w
  4925  0F0C  0247               	subwf	___fldiv@rem,w
  4926  0F0D                     u2045:	
  4927  0F0D  1C03               	skipc
  4928  0F0E  2F10               	goto	u2041
  4929  0F0F  2F11               	goto	u2040
  4930  0F10                     u2041:	
  4931  0F10  2F20               	goto	l1890
  4932  0F11                     u2040:	
  4933  0F11                     l1886:	
  4934  0F11  1751               	bsf	___fldiv@grs+3,6
  4935  0F12                     l1888:	
  4936  0F12  083A               	movf	___fldiv@a,w
  4937  0F13  02C7               	subwf	___fldiv@rem,f
  4938  0F14  083B               	movf	___fldiv@a+1,w
  4939  0F15  1C03               	skipc
  4940  0F16  0F3B               	incfsz	___fldiv@a+1,w
  4941  0F17  02C8               	subwf	___fldiv@rem+1,f
  4942  0F18  083C               	movf	___fldiv@a+2,w
  4943  0F19  1C03               	skipc
  4944  0F1A  0F3C               	incfsz	___fldiv@a+2,w
  4945  0F1B  02C9               	subwf	___fldiv@rem+2,f
  4946  0F1C  083D               	movf	___fldiv@a+3,w
  4947  0F1D  1C03               	skipc
  4948  0F1E  0F3D               	incfsz	___fldiv@a+3,w
  4949  0F1F  02CA               	subwf	___fldiv@rem+3,f
  4950  0F20                     l1890:	
  4951  0F20  3001               	movlw	1
  4952  0F21  00C2               	movwf	??___fldiv
  4953  0F22  0842               	movf	??___fldiv,w
  4954  0F23  07D3               	addwf	___fldiv@aexp,f
  4955  0F24                     l1892:	
  4956  0F24  301A               	movlw	26
  4957  0F25  0253               	subwf	___fldiv@aexp,w
  4958  0F26  1C03               	skipc
  4959  0F27  2F29               	goto	u2051
  4960  0F28  2F2A               	goto	u2050
  4961  0F29                     u2051:	
  4962  0F29  2EDA               	goto	l1874
  4963  0F2A                     u2050:	
  4964  0F2A                     l1894:	
  4965  0F2A  084A               	movf	___fldiv@rem+3,w
  4966  0F2B  0449               	iorwf	___fldiv@rem+2,w
  4967  0F2C  0448               	iorwf	___fldiv@rem+1,w
  4968  0F2D  0447               	iorwf	___fldiv@rem,w
  4969  0F2E  1903               	skipnz
  4970  0F2F  2F31               	goto	u2061
  4971  0F30  2F32               	goto	u2060
  4972  0F31                     u2061:	
  4973  0F31  2F51               	goto	l1908
  4974  0F32                     u2060:	
  4975  0F32                     l1896:	
  4976  0F32  144E               	bsf	___fldiv@grs,0
  4977  0F33  2F51               	goto	l1908
  4978  0F34                     l1898:	
  4979  0F34  3001               	movlw	1
  4980  0F35  00C2               	movwf	??___fldiv
  4981  0F36                     u2075:	
  4982  0F36  1003               	clrc
  4983  0F37  0DBE               	rlf	___fldiv@b,f
  4984  0F38  0DBF               	rlf	___fldiv@b+1,f
  4985  0F39  0DC0               	rlf	___fldiv@b+2,f
  4986  0F3A  0DC1               	rlf	___fldiv@b+3,f
  4987  0F3B  0BC2               	decfsz	??___fldiv,f
  4988  0F3C  2F36               	goto	u2075
  4989  0F3D                     l1900:	
  4990  0F3D  1FD1               	btfss	___fldiv@grs+3,7
  4991  0F3E  2F40               	goto	u2081
  4992  0F3F  2F41               	goto	u2080
  4993  0F40                     u2081:	
  4994  0F40  2F42               	goto	l1904
  4995  0F41                     u2080:	
  4996  0F41                     l1902:	
  4997  0F41  143E               	bsf	___fldiv@b,0
  4998  0F42                     l1904:	
  4999  0F42  3001               	movlw	1
  5000  0F43  00C2               	movwf	??___fldiv
  5001  0F44                     u2095:	
  5002  0F44  1003               	clrc
  5003  0F45  0DCE               	rlf	___fldiv@grs,f
  5004  0F46  0DCF               	rlf	___fldiv@grs+1,f
  5005  0F47  0DD0               	rlf	___fldiv@grs+2,f
  5006  0F48  0DD1               	rlf	___fldiv@grs+3,f
  5007  0F49  0BC2               	decfsz	??___fldiv,f
  5008  0F4A  2F44               	goto	u2095
  5009  0F4B                     l1906:	
  5010  0F4B  30FF               	movlw	255
  5011  0F4C  07CC               	addwf	___fldiv@new_exp,f
  5012  0F4D  1803               	skipnc
  5013  0F4E  0ACD               	incf	___fldiv@new_exp+1,f
  5014  0F4F  30FF               	movlw	255
  5015  0F50  07CD               	addwf	___fldiv@new_exp+1,f
  5016  0F51                     l1908:	
  5017  0F51  1FC0               	btfss	___fldiv@b+2,7
  5018  0F52  2F54               	goto	u2101
  5019  0F53  2F55               	goto	u2100
  5020  0F54                     u2101:	
  5021  0F54  2F34               	goto	l1898
  5022  0F55                     u2100:	
  5023  0F55                     l1910:	
  5024  0F55  01D3               	clrf	___fldiv@aexp
  5025  0F56                     l1912:	
  5026  0F56  1FD1               	btfss	___fldiv@grs+3,7
  5027  0F57  2F59               	goto	u2111
  5028  0F58  2F5A               	goto	u2110
  5029  0F59                     u2111:	
  5030  0F59  2F76               	goto	l1920
  5031  0F5A                     u2110:	
  5032  0F5A                     l1914:	
  5033  0F5A  30FF               	movlw	255
  5034  0F5B  054E               	andwf	___fldiv@grs,w
  5035  0F5C  00C2               	movwf	??___fldiv
  5036  0F5D  30FF               	movlw	255
  5037  0F5E  054F               	andwf	___fldiv@grs+1,w
  5038  0F5F  00C3               	movwf	??___fldiv+1
  5039  0F60  30FF               	movlw	255
  5040  0F61  0550               	andwf	___fldiv@grs+2,w
  5041  0F62  00C4               	movwf	??___fldiv+2
  5042  0F63  307F               	movlw	127
  5043  0F64  0551               	andwf	___fldiv@grs+3,w
  5044  0F65  00C5               	movwf	??___fldiv+3
  5045  0F66  0845               	movf	??___fldiv+3,w
  5046  0F67  0444               	iorwf	??___fldiv+2,w
  5047  0F68  0443               	iorwf	??___fldiv+1,w
  5048  0F69  0442               	iorwf	??___fldiv,w
  5049  0F6A  1903               	skipnz
  5050  0F6B  2F6D               	goto	u2121
  5051  0F6C  2F6E               	goto	u2120
  5052  0F6D                     u2121:	
  5053  0F6D  2F71               	goto	l608
  5054  0F6E                     u2120:	
  5055  0F6E                     l1916:	
  5056  0F6E  01D3               	clrf	___fldiv@aexp
  5057  0F6F  0AD3               	incf	___fldiv@aexp,f
  5058  0F70  2F76               	goto	l1920
  5059  0F71                     l608:	
  5060  0F71  1C3E               	btfss	___fldiv@b,0
  5061  0F72  2F74               	goto	u2131
  5062  0F73  2F75               	goto	u2130
  5063  0F74                     u2131:	
  5064  0F74  2F76               	goto	l1920
  5065  0F75                     u2130:	
  5066  0F75  2F6E               	goto	l1916
  5067  0F76                     l1920:	
  5068  0F76  0853               	movf	___fldiv@aexp,w
  5069  0F77  1903               	btfsc	3,2
  5070  0F78  2F7A               	goto	u2141
  5071  0F79  2F7B               	goto	u2140
  5072  0F7A                     u2141:	
  5073  0F7A  2FAC               	goto	l1930
  5074  0F7B                     u2140:	
  5075  0F7B                     l1922:	
  5076  0F7B  3001               	movlw	1
  5077  0F7C  07BE               	addwf	___fldiv@b,f
  5078  0F7D  3000               	movlw	0
  5079  0F7E  1803               	skipnc
  5080  0F7F  3001               	movlw	1
  5081  0F80  07BF               	addwf	___fldiv@b+1,f
  5082  0F81  3000               	movlw	0
  5083  0F82  1803               	skipnc
  5084  0F83  3001               	movlw	1
  5085  0F84  07C0               	addwf	___fldiv@b+2,f
  5086  0F85  3000               	movlw	0
  5087  0F86  1803               	skipnc
  5088  0F87  3001               	movlw	1
  5089  0F88  07C1               	addwf	___fldiv@b+3,f
  5090  0F89                     l1924:	
  5091  0F89  1C41               	btfss	___fldiv@b+3,0
  5092  0F8A  2F8C               	goto	u2151
  5093  0F8B  2F8D               	goto	u2150
  5094  0F8C                     u2151:	
  5095  0F8C  2FAC               	goto	l1930
  5096  0F8D                     u2150:	
  5097  0F8D                     l1926:	
  5098  0F8D  083E               	movf	___fldiv@b,w
  5099  0F8E  00C2               	movwf	??___fldiv
  5100  0F8F  083F               	movf	___fldiv@b+1,w
  5101  0F90  00C3               	movwf	??___fldiv+1
  5102  0F91  0840               	movf	___fldiv@b+2,w
  5103  0F92  00C4               	movwf	??___fldiv+2
  5104  0F93  0841               	movf	___fldiv@b+3,w
  5105  0F94  00C5               	movwf	??___fldiv+3
  5106  0F95  3001               	movlw	1
  5107  0F96  00C6               	movwf	??___fldiv+4
  5108  0F97                     u2165:	
  5109  0F97  0D45               	rlf	??___fldiv+3,w
  5110  0F98  0CC5               	rrf	??___fldiv+3,f
  5111  0F99  0CC4               	rrf	??___fldiv+2,f
  5112  0F9A  0CC3               	rrf	??___fldiv+1,f
  5113  0F9B  0CC2               	rrf	??___fldiv,f
  5114  0F9C                     u2160:	
  5115  0F9C  0BC6               	decfsz	??___fldiv+4,f
  5116  0F9D  2F97               	goto	u2165
  5117  0F9E  0845               	movf	??___fldiv+3,w
  5118  0F9F  00C1               	movwf	___fldiv@b+3
  5119  0FA0  0844               	movf	??___fldiv+2,w
  5120  0FA1  00C0               	movwf	___fldiv@b+2
  5121  0FA2  0843               	movf	??___fldiv+1,w
  5122  0FA3  00BF               	movwf	___fldiv@b+1
  5123  0FA4  0842               	movf	??___fldiv,w
  5124  0FA5  00BE               	movwf	___fldiv@b
  5125  0FA6                     l1928:	
  5126  0FA6  3001               	movlw	1
  5127  0FA7  07CC               	addwf	___fldiv@new_exp,f
  5128  0FA8  1803               	skipnc
  5129  0FA9  0ACD               	incf	___fldiv@new_exp+1,f
  5130  0FAA  3000               	movlw	0
  5131  0FAB  07CD               	addwf	___fldiv@new_exp+1,f
  5132  0FAC                     l1930:	
  5133  0FAC  084D               	movf	___fldiv@new_exp+1,w
  5134  0FAD  3A80               	xorlw	128
  5135  0FAE  00FF               	movwf	btemp+1
  5136  0FAF  3080               	movlw	128
  5137  0FB0  027F               	subwf	btemp+1,w
  5138  0FB1  1D03               	skipz
  5139  0FB2  2FB5               	goto	u2175
  5140  0FB3  30FF               	movlw	255
  5141  0FB4  024C               	subwf	___fldiv@new_exp,w
  5142  0FB5                     u2175:	
  5143  0FB5  1C03               	skipc
  5144  0FB6  2FB8               	goto	u2171
  5145  0FB7  2FB9               	goto	u2170
  5146  0FB8                     u2171:	
  5147  0FB8  2FC7               	goto	l1934
  5148  0FB9                     u2170:	
  5149  0FB9                     l1932:	
  5150  0FB9  30FF               	movlw	255
  5151  0FBA  1283               	bcf	3,5	;RP0=0, select bank0
  5152  0FBB  1303               	bcf	3,6	;RP1=0, select bank0
  5153  0FBC  00CC               	movwf	___fldiv@new_exp
  5154  0FBD  3000               	movlw	0
  5155  0FBE  00CD               	movwf	___fldiv@new_exp+1
  5156  0FBF  3000               	movlw	0
  5157  0FC0  00C1               	movwf	___fldiv@b+3
  5158  0FC1  3000               	movlw	0
  5159  0FC2  00C0               	movwf	___fldiv@b+2
  5160  0FC3  3000               	movlw	0
  5161  0FC4  00BF               	movwf	___fldiv@b+1
  5162  0FC5  3000               	movlw	0
  5163  0FC6  00BE               	movwf	___fldiv@b
  5164  0FC7                     l1934:	
  5165  0FC7  1283               	bcf	3,5	;RP0=0, select bank0
  5166  0FC8  1303               	bcf	3,6	;RP1=0, select bank0
  5167  0FC9  084D               	movf	___fldiv@new_exp+1,w
  5168  0FCA  3A80               	xorlw	128
  5169  0FCB  00FF               	movwf	btemp+1
  5170  0FCC  3080               	movlw	128
  5171  0FCD  027F               	subwf	btemp+1,w
  5172  0FCE  1D03               	skipz
  5173  0FCF  2FD2               	goto	u2185
  5174  0FD0  3001               	movlw	1
  5175  0FD1  024C               	subwf	___fldiv@new_exp,w
  5176  0FD2                     u2185:	
  5177  0FD2  1803               	skipnc
  5178  0FD3  2FD5               	goto	u2181
  5179  0FD4  2FD6               	goto	u2180
  5180  0FD5                     u2181:	
  5181  0FD5  2FE3               	goto	l614
  5182  0FD6                     u2180:	
  5183  0FD6                     l1936:	
  5184  0FD6  1283               	bcf	3,5	;RP0=0, select bank0
  5185  0FD7  1303               	bcf	3,6	;RP1=0, select bank0
  5186  0FD8  01CC               	clrf	___fldiv@new_exp
  5187  0FD9  01CD               	clrf	___fldiv@new_exp+1
  5188  0FDA                     l1938:	
  5189  0FDA  3000               	movlw	0
  5190  0FDB  00C1               	movwf	___fldiv@b+3
  5191  0FDC  3000               	movlw	0
  5192  0FDD  00C0               	movwf	___fldiv@b+2
  5193  0FDE  3000               	movlw	0
  5194  0FDF  00BF               	movwf	___fldiv@b+1
  5195  0FE0  3000               	movlw	0
  5196  0FE1  00BE               	movwf	___fldiv@b
  5197  0FE2                     l1940:	
  5198  0FE2  01CB               	clrf	___fldiv@sign
  5199  0FE3                     l614:	
  5200  0FE3  1283               	bcf	3,5	;RP0=0, select bank0
  5201  0FE4  1303               	bcf	3,6	;RP1=0, select bank0
  5202  0FE5  084C               	movf	___fldiv@new_exp,w
  5203  0FE6  00C2               	movwf	??___fldiv
  5204  0FE7  0842               	movf	??___fldiv,w
  5205  0FE8  00D2               	movwf	___fldiv@bexp
  5206  0FE9                     l1942:	
  5207  0FE9  1C52               	btfss	___fldiv@bexp,0
  5208  0FEA  2FEC               	goto	u2191
  5209  0FEB  2FED               	goto	u2190
  5210  0FEC                     u2191:	
  5211  0FEC  2FEF               	goto	l1946
  5212  0FED                     u2190:	
  5213  0FED                     l1944:	
  5214  0FED  17C0               	bsf	___fldiv@b+2,7
  5215  0FEE  2FF3               	goto	l616
  5216  0FEF                     l1946:	
  5217  0FEF  307F               	movlw	127
  5218  0FF0  00C2               	movwf	??___fldiv
  5219  0FF1  0842               	movf	??___fldiv,w
  5220  0FF2  05C0               	andwf	___fldiv@b+2,f
  5221  0FF3                     l616:	
  5222  0FF3  0852               	movf	___fldiv@bexp,w
  5223  0FF4  00C2               	movwf	??___fldiv
  5224  0FF5  1003               	clrc
  5225  0FF6  0C42               	rrf	??___fldiv,w
  5226  0FF7  00C3               	movwf	??___fldiv+1
  5227  0FF8  0843               	movf	??___fldiv+1,w
  5228  0FF9  00C1               	movwf	___fldiv@b+3
  5229  0FFA  084B               	movf	___fldiv@sign,w
  5230  0FFB  00C2               	movwf	??___fldiv
  5231  0FFC  0842               	movf	??___fldiv,w
  5232  0FFD  04C1               	iorwf	___fldiv@b+3,f
  5233  0FFE  2E97               	goto	l1854
  5234  0FFF                     l594:	
  5235  0FFF  0008               	return
  5236  1000                     __end_of___fldiv:	
  5237                           
  5238                           	psect	text19
  5239  0CEF                     __ptext19:	
  5240 ;; *************** function ___awmod *****************
  5241 ;; Defined at:
  5242 ;;		line 5 in file "C:\Program Files (x86)\Microchip\xc8\v2.10\pic\sources\c90\common\awmod.c"
  5243 ;; Parameters:    Size  Location     Type
  5244 ;;  divisor         2    9[COMMON] int 
  5245 ;;  dividend        2   11[COMMON] int 
  5246 ;; Auto vars:     Size  Location     Type
  5247 ;;  sign            1    1[BANK0 ] unsigned char 
  5248 ;;  counter         1    0[BANK0 ] unsigned char 
  5249 ;; Return value:  Size  Location     Type
  5250 ;;                  2    9[COMMON] int 
  5251 ;; Registers used:
  5252 ;;		wreg, status,2, status,0
  5253 ;; Tracked objects:
  5254 ;;		On entry : 0/0
  5255 ;;		On exit  : 0/0
  5256 ;;		Unchanged: 0/0
  5257 ;; Data sizes:     COMMON   BANK0   BANK1   BANK3   BANK2
  5258 ;;      Params:         4       0       0       0       0
  5259 ;;      Locals:         0       2       0       0       0
  5260 ;;      Temps:          1       0       0       0       0
  5261 ;;      Totals:         5       2       0       0       0
  5262 ;;Total ram usage:        7 bytes
  5263 ;; Hardware stack levels used:    1
  5264 ;; This function calls:
  5265 ;;		Nothing
  5266 ;; This function is called by:
  5267 ;;		_ADC
  5268 ;; This function uses a non-reentrant model
  5269 ;;
  5270                           
  5271                           
  5272                           ;psect for function ___awmod
  5273  0CEF                     ___awmod:	
  5274  0CEF                     l1736:	
  5275                           ;incstack = 0
  5276                           ; Regs used in ___awmod: [wreg+status,2+status,0]
  5277                           
  5278  0CEF  1283               	bcf	3,5	;RP0=0, select bank0
  5279  0CF0  1303               	bcf	3,6	;RP1=0, select bank0
  5280  0CF1  01A1               	clrf	___awmod@sign
  5281  0CF2                     l1738:	
  5282  0CF2  1FFC               	btfss	___awmod@dividend+1,7
  5283  0CF3  2CF5               	goto	u1721
  5284  0CF4  2CF6               	goto	u1720
  5285  0CF5                     u1721:	
  5286  0CF5  2CFD               	goto	l1744
  5287  0CF6                     u1720:	
  5288  0CF6                     l1740:	
  5289  0CF6  09FB               	comf	___awmod@dividend,f
  5290  0CF7  09FC               	comf	___awmod@dividend+1,f
  5291  0CF8  0AFB               	incf	___awmod@dividend,f
  5292  0CF9  1903               	skipnz
  5293  0CFA  0AFC               	incf	___awmod@dividend+1,f
  5294  0CFB                     l1742:	
  5295  0CFB  01A1               	clrf	___awmod@sign
  5296  0CFC  0AA1               	incf	___awmod@sign,f
  5297  0CFD                     l1744:	
  5298  0CFD  1FFA               	btfss	___awmod@divisor+1,7
  5299  0CFE  2D00               	goto	u1731
  5300  0CFF  2D01               	goto	u1730
  5301  0D00                     u1731:	
  5302  0D00  2D06               	goto	l1748
  5303  0D01                     u1730:	
  5304  0D01                     l1746:	
  5305  0D01  09F9               	comf	___awmod@divisor,f
  5306  0D02  09FA               	comf	___awmod@divisor+1,f
  5307  0D03  0AF9               	incf	___awmod@divisor,f
  5308  0D04  1903               	skipnz
  5309  0D05  0AFA               	incf	___awmod@divisor+1,f
  5310  0D06                     l1748:	
  5311  0D06  0879               	movf	___awmod@divisor,w
  5312  0D07  047A               	iorwf	___awmod@divisor+1,w
  5313  0D08  1903               	btfsc	3,2
  5314  0D09  2D0B               	goto	u1741
  5315  0D0A  2D0C               	goto	u1740
  5316  0D0B                     u1741:	
  5317  0D0B  2D3B               	goto	l1766
  5318  0D0C                     u1740:	
  5319  0D0C                     l1750:	
  5320  0D0C  01A0               	clrf	___awmod@counter
  5321  0D0D  0AA0               	incf	___awmod@counter,f
  5322  0D0E  2D1A               	goto	l1756
  5323  0D0F                     l1752:	
  5324  0D0F  3001               	movlw	1
  5325  0D10                     u1755:	
  5326  0D10  1003               	clrc
  5327  0D11  0DF9               	rlf	___awmod@divisor,f
  5328  0D12  0DFA               	rlf	___awmod@divisor+1,f
  5329  0D13  3EFF               	addlw	-1
  5330  0D14  1D03               	skipz
  5331  0D15  2D10               	goto	u1755
  5332  0D16                     l1754:	
  5333  0D16  3001               	movlw	1
  5334  0D17  00FD               	movwf	??___awmod
  5335  0D18  087D               	movf	??___awmod,w
  5336  0D19  07A0               	addwf	___awmod@counter,f
  5337  0D1A                     l1756:	
  5338  0D1A  1FFA               	btfss	___awmod@divisor+1,7
  5339  0D1B  2D1D               	goto	u1761
  5340  0D1C  2D1E               	goto	u1760
  5341  0D1D                     u1761:	
  5342  0D1D  2D0F               	goto	l1752
  5343  0D1E                     u1760:	
  5344  0D1E                     l1758:	
  5345  0D1E  087A               	movf	___awmod@divisor+1,w
  5346  0D1F  027C               	subwf	___awmod@dividend+1,w
  5347  0D20  1D03               	skipz
  5348  0D21  2D24               	goto	u1775
  5349  0D22  0879               	movf	___awmod@divisor,w
  5350  0D23  027B               	subwf	___awmod@dividend,w
  5351  0D24                     u1775:	
  5352  0D24  1C03               	skipc
  5353  0D25  2D27               	goto	u1771
  5354  0D26  2D28               	goto	u1770
  5355  0D27                     u1771:	
  5356  0D27  2D2E               	goto	l1762
  5357  0D28                     u1770:	
  5358  0D28                     l1760:	
  5359  0D28  0879               	movf	___awmod@divisor,w
  5360  0D29  02FB               	subwf	___awmod@dividend,f
  5361  0D2A  087A               	movf	___awmod@divisor+1,w
  5362  0D2B  1C03               	skipc
  5363  0D2C  03FC               	decf	___awmod@dividend+1,f
  5364  0D2D  02FC               	subwf	___awmod@dividend+1,f
  5365  0D2E                     l1762:	
  5366  0D2E  3001               	movlw	1
  5367  0D2F                     u1785:	
  5368  0D2F  1003               	clrc
  5369  0D30  0CFA               	rrf	___awmod@divisor+1,f
  5370  0D31  0CF9               	rrf	___awmod@divisor,f
  5371  0D32  3EFF               	addlw	-1
  5372  0D33  1D03               	skipz
  5373  0D34  2D2F               	goto	u1785
  5374  0D35                     l1764:	
  5375  0D35  3001               	movlw	1
  5376  0D36  02A0               	subwf	___awmod@counter,f
  5377  0D37  1D03               	btfss	3,2
  5378  0D38  2D3A               	goto	u1791
  5379  0D39  2D3B               	goto	u1790
  5380  0D3A                     u1791:	
  5381  0D3A  2D1E               	goto	l1758
  5382  0D3B                     u1790:	
  5383  0D3B                     l1766:	
  5384  0D3B  0821               	movf	___awmod@sign,w
  5385  0D3C  1903               	btfsc	3,2
  5386  0D3D  2D3F               	goto	u1801
  5387  0D3E  2D40               	goto	u1800
  5388  0D3F                     u1801:	
  5389  0D3F  2D45               	goto	l1770
  5390  0D40                     u1800:	
  5391  0D40                     l1768:	
  5392  0D40  09FB               	comf	___awmod@dividend,f
  5393  0D41  09FC               	comf	___awmod@dividend+1,f
  5394  0D42  0AFB               	incf	___awmod@dividend,f
  5395  0D43  1903               	skipnz
  5396  0D44  0AFC               	incf	___awmod@dividend+1,f
  5397  0D45                     l1770:	
  5398  0D45  087C               	movf	___awmod@dividend+1,w
  5399  0D46  00FA               	movwf	?___awmod+1
  5400  0D47  087B               	movf	___awmod@dividend,w
  5401  0D48  00F9               	movwf	?___awmod
  5402  0D49                     l409:	
  5403  0D49  0008               	return
  5404  0D4A                     __end_of___awmod:	
  5405                           
  5406                           	psect	text20
  5407  0D4A                     __ptext20:	
  5408 ;; *************** function ___awdiv *****************
  5409 ;; Defined at:
  5410 ;;		line 5 in file "C:\Program Files (x86)\Microchip\xc8\v2.10\pic\sources\c90\common\awdiv.c"
  5411 ;; Parameters:    Size  Location     Type
  5412 ;;  divisor         2    0[COMMON] int 
  5413 ;;  dividend        2    2[COMMON] int 
  5414 ;; Auto vars:     Size  Location     Type
  5415 ;;  quotient        2    7[COMMON] int 
  5416 ;;  sign            1    6[COMMON] unsigned char 
  5417 ;;  counter         1    5[COMMON] unsigned char 
  5418 ;; Return value:  Size  Location     Type
  5419 ;;                  2    0[COMMON] int 
  5420 ;; Registers used:
  5421 ;;		wreg, status,2, status,0
  5422 ;; Tracked objects:
  5423 ;;		On entry : 0/0
  5424 ;;		On exit  : 0/0
  5425 ;;		Unchanged: 0/0
  5426 ;; Data sizes:     COMMON   BANK0   BANK1   BANK3   BANK2
  5427 ;;      Params:         4       0       0       0       0
  5428 ;;      Locals:         4       0       0       0       0
  5429 ;;      Temps:          1       0       0       0       0
  5430 ;;      Totals:         9       0       0       0       0
  5431 ;;Total ram usage:        9 bytes
  5432 ;; Hardware stack levels used:    1
  5433 ;; This function calls:
  5434 ;;		Nothing
  5435 ;; This function is called by:
  5436 ;;		_ADC
  5437 ;; This function uses a non-reentrant model
  5438 ;;
  5439                           
  5440                           
  5441                           ;psect for function ___awdiv
  5442  0D4A                     ___awdiv:	
  5443  0D4A                     l1692:	
  5444                           ;incstack = 0
  5445                           ; Regs used in ___awdiv: [wreg+status,2+status,0]
  5446                           
  5447  0D4A  01F6               	clrf	___awdiv@sign
  5448  0D4B                     l1694:	
  5449  0D4B  1FF1               	btfss	___awdiv@divisor+1,7
  5450  0D4C  2D4E               	goto	u1621
  5451  0D4D  2D4F               	goto	u1620
  5452  0D4E                     u1621:	
  5453  0D4E  2D56               	goto	l1700
  5454  0D4F                     u1620:	
  5455  0D4F                     l1696:	
  5456  0D4F  09F0               	comf	___awdiv@divisor,f
  5457  0D50  09F1               	comf	___awdiv@divisor+1,f
  5458  0D51  0AF0               	incf	___awdiv@divisor,f
  5459  0D52  1903               	skipnz
  5460  0D53  0AF1               	incf	___awdiv@divisor+1,f
  5461  0D54                     l1698:	
  5462  0D54  01F6               	clrf	___awdiv@sign
  5463  0D55  0AF6               	incf	___awdiv@sign,f
  5464  0D56                     l1700:	
  5465  0D56  1FF3               	btfss	___awdiv@dividend+1,7
  5466  0D57  2D59               	goto	u1631
  5467  0D58  2D5A               	goto	u1630
  5468  0D59                     u1631:	
  5469  0D59  2D63               	goto	l1706
  5470  0D5A                     u1630:	
  5471  0D5A                     l1702:	
  5472  0D5A  09F2               	comf	___awdiv@dividend,f
  5473  0D5B  09F3               	comf	___awdiv@dividend+1,f
  5474  0D5C  0AF2               	incf	___awdiv@dividend,f
  5475  0D5D  1903               	skipnz
  5476  0D5E  0AF3               	incf	___awdiv@dividend+1,f
  5477  0D5F                     l1704:	
  5478  0D5F  3001               	movlw	1
  5479  0D60  00F4               	movwf	??___awdiv
  5480  0D61  0874               	movf	??___awdiv,w
  5481  0D62  06F6               	xorwf	___awdiv@sign,f
  5482  0D63                     l1706:	
  5483  0D63  01F7               	clrf	___awdiv@quotient
  5484  0D64  01F8               	clrf	___awdiv@quotient+1
  5485  0D65                     l1708:	
  5486  0D65  0870               	movf	___awdiv@divisor,w
  5487  0D66  0471               	iorwf	___awdiv@divisor+1,w
  5488  0D67  1903               	btfsc	3,2
  5489  0D68  2D6A               	goto	u1641
  5490  0D69  2D6B               	goto	u1640
  5491  0D6A                     u1641:	
  5492  0D6A  2DA2               	goto	l1728
  5493  0D6B                     u1640:	
  5494  0D6B                     l1710:	
  5495  0D6B  01F5               	clrf	___awdiv@counter
  5496  0D6C  0AF5               	incf	___awdiv@counter,f
  5497  0D6D  2D79               	goto	l1716
  5498  0D6E                     l1712:	
  5499  0D6E  3001               	movlw	1
  5500  0D6F                     u1655:	
  5501  0D6F  1003               	clrc
  5502  0D70  0DF0               	rlf	___awdiv@divisor,f
  5503  0D71  0DF1               	rlf	___awdiv@divisor+1,f
  5504  0D72  3EFF               	addlw	-1
  5505  0D73  1D03               	skipz
  5506  0D74  2D6F               	goto	u1655
  5507  0D75                     l1714:	
  5508  0D75  3001               	movlw	1
  5509  0D76  00F4               	movwf	??___awdiv
  5510  0D77  0874               	movf	??___awdiv,w
  5511  0D78  07F5               	addwf	___awdiv@counter,f
  5512  0D79                     l1716:	
  5513  0D79  1FF1               	btfss	___awdiv@divisor+1,7
  5514  0D7A  2D7C               	goto	u1661
  5515  0D7B  2D7D               	goto	u1660
  5516  0D7C                     u1661:	
  5517  0D7C  2D6E               	goto	l1712
  5518  0D7D                     u1660:	
  5519  0D7D                     l1718:	
  5520  0D7D  3001               	movlw	1
  5521  0D7E                     u1675:	
  5522  0D7E  1003               	clrc
  5523  0D7F  0DF7               	rlf	___awdiv@quotient,f
  5524  0D80  0DF8               	rlf	___awdiv@quotient+1,f
  5525  0D81  3EFF               	addlw	-1
  5526  0D82  1D03               	skipz
  5527  0D83  2D7E               	goto	u1675
  5528  0D84  0871               	movf	___awdiv@divisor+1,w
  5529  0D85  0273               	subwf	___awdiv@dividend+1,w
  5530  0D86  1D03               	skipz
  5531  0D87  2D8A               	goto	u1685
  5532  0D88  0870               	movf	___awdiv@divisor,w
  5533  0D89  0272               	subwf	___awdiv@dividend,w
  5534  0D8A                     u1685:	
  5535  0D8A  1C03               	skipc
  5536  0D8B  2D8D               	goto	u1681
  5537  0D8C  2D8E               	goto	u1680
  5538  0D8D                     u1681:	
  5539  0D8D  2D95               	goto	l1724
  5540  0D8E                     u1680:	
  5541  0D8E                     l1720:	
  5542  0D8E  0870               	movf	___awdiv@divisor,w
  5543  0D8F  02F2               	subwf	___awdiv@dividend,f
  5544  0D90  0871               	movf	___awdiv@divisor+1,w
  5545  0D91  1C03               	skipc
  5546  0D92  03F3               	decf	___awdiv@dividend+1,f
  5547  0D93  02F3               	subwf	___awdiv@dividend+1,f
  5548  0D94                     l1722:	
  5549  0D94  1477               	bsf	___awdiv@quotient,0
  5550  0D95                     l1724:	
  5551  0D95  3001               	movlw	1
  5552  0D96                     u1695:	
  5553  0D96  1003               	clrc
  5554  0D97  0CF1               	rrf	___awdiv@divisor+1,f
  5555  0D98  0CF0               	rrf	___awdiv@divisor,f
  5556  0D99  3EFF               	addlw	-1
  5557  0D9A  1D03               	skipz
  5558  0D9B  2D96               	goto	u1695
  5559  0D9C                     l1726:	
  5560  0D9C  3001               	movlw	1
  5561  0D9D  02F5               	subwf	___awdiv@counter,f
  5562  0D9E  1D03               	btfss	3,2
  5563  0D9F  2DA1               	goto	u1701
  5564  0DA0  2DA2               	goto	u1700
  5565  0DA1                     u1701:	
  5566  0DA1  2D7D               	goto	l1718
  5567  0DA2                     u1700:	
  5568  0DA2                     l1728:	
  5569  0DA2  0876               	movf	___awdiv@sign,w
  5570  0DA3  1903               	btfsc	3,2
  5571  0DA4  2DA6               	goto	u1711
  5572  0DA5  2DA7               	goto	u1710
  5573  0DA6                     u1711:	
  5574  0DA6  2DAC               	goto	l1732
  5575  0DA7                     u1710:	
  5576  0DA7                     l1730:	
  5577  0DA7  09F7               	comf	___awdiv@quotient,f
  5578  0DA8  09F8               	comf	___awdiv@quotient+1,f
  5579  0DA9  0AF7               	incf	___awdiv@quotient,f
  5580  0DAA  1903               	skipnz
  5581  0DAB  0AF8               	incf	___awdiv@quotient+1,f
  5582  0DAC                     l1732:	
  5583  0DAC  0878               	movf	___awdiv@quotient+1,w
  5584  0DAD  00F1               	movwf	?___awdiv+1
  5585  0DAE  0877               	movf	___awdiv@quotient,w
  5586  0DAF  00F0               	movwf	?___awdiv
  5587  0DB0                     l396:	
  5588  0DB0  0008               	return
  5589  0DB1                     __end_of___awdiv:	
  5590  007E                     btemp	set	126	;btemp
  5591  007E                     wtemp0	set	126


Data Sizes:
    Strings     18
    Constant    0
    Data        0
    BSS         75
    Persistent  0
    Stack       0

Auto Spaces:
    Space          Size  Autos    Used
    COMMON           14     14      14
    BANK0            80     56      78
    BANK1            80      0      53
    BANK3            96      0       0
    BANK2            96      0       0

Pointer List with Targets:

    strcpy@from	PTR const unsigned char  size(1) Largest target is 2
		 -> STR_3(CODE[2]), STR_2(CODE[2]), 

    strcpy@to	PTR unsigned char  size(1) Largest target is 5
		 -> POINTERB(BANK1[5]), POINTERA(BANK1[5]), 

    strcpy@cp	PTR unsigned char  size(1) Largest target is 5
		 -> POINTERB(BANK1[5]), POINTERA(BANK1[5]), 

    strcat@from	PTR const unsigned char  size(1) Largest target is 5
		 -> POINTERB(BANK1[5]), ADCAB_CHARB(BANK1[5]), ADCAA_CHARA(BANK1[5]), POINTERA(BANK1[5]), 
		 -> ADCB_CHARB(BANK1[5]), ADCA_CHARA(BANK1[5]), 

    strcat@to	PTR unsigned char  size(1) Largest target is 5
		 -> POINTERB(BANK1[5]), ADCAC_CHARC(BANK1[5]), ADCAB_CHARB(BANK1[5]), POINTERA(BANK1[5]), 
		 -> ADCC_CHARC(BANK1[5]), ADCB_CHARB(BANK1[5]), 

    strcat@cp	PTR unsigned char  size(1) Largest target is 5
		 -> POINTERB(BANK1[5]), ADCAC_CHARC(BANK1[5]), ADCAB_CHARB(BANK1[5]), POINTERA(BANK1[5]), 
		 -> ADCC_CHARC(BANK1[5]), ADCB_CHARB(BANK1[5]), 

    utoa@buf	PTR unsigned char  size(1) Largest target is 5
		 -> ADCAC_CHARC(BANK1[5]), ADCAB_CHARB(BANK1[5]), ADCAA_CHARA(BANK1[5]), ADCC_CHARC(BANK1[5]), 
		 -> ADCB_CHARB(BANK1[5]), ADCA_CHARA(BANK1[5]), ARDUINO(BANK1[5]), 

    sp__utoa	PTR unsigned char  size(1) Largest target is 5
		 -> ADCAC_CHARC(BANK1[5]), ADCAB_CHARB(BANK1[5]), ADCAA_CHARA(BANK1[5]), ADCC_CHARC(BANK1[5]), 
		 -> ADCB_CHARB(BANK1[5]), ADCA_CHARA(BANK1[5]), ARDUINO(BANK1[5]), 

    itoa@buf	PTR unsigned char  size(1) Largest target is 5
		 -> ADCAC_CHARC(BANK1[5]), ADCAB_CHARB(BANK1[5]), ADCAA_CHARA(BANK1[5]), ADCC_CHARC(BANK1[5]), 
		 -> ADCB_CHARB(BANK1[5]), ADCA_CHARA(BANK1[5]), ARDUINO(BANK1[5]), 

    itoa@cp	PTR unsigned char  size(1) Largest target is 5
		 -> ADCAC_CHARC(BANK1[5]), ADCAB_CHARB(BANK1[5]), ADCAA_CHARA(BANK1[5]), ADCC_CHARC(BANK1[5]), 
		 -> ADCB_CHARB(BANK1[5]), ADCA_CHARA(BANK1[5]), ARDUINO(BANK1[5]), 

    sp__strcpy	PTR unsigned char  size(1) Largest target is 5
		 -> POINTERB(BANK1[5]), POINTERA(BANK1[5]), 

    sp__strcat	PTR unsigned char  size(1) Largest target is 5
		 -> POINTERB(BANK1[5]), ADCAC_CHARC(BANK1[5]), ADCAB_CHARB(BANK1[5]), POINTERA(BANK1[5]), 
		 -> ADCC_CHARC(BANK1[5]), ADCB_CHARB(BANK1[5]), 

    sp__itoa	PTR unsigned char  size(1) Largest target is 5
		 -> ADCAC_CHARC(BANK1[5]), ADCAB_CHARB(BANK1[5]), ADCAA_CHARA(BANK1[5]), ADCC_CHARC(BANK1[5]), 
		 -> ADCB_CHARB(BANK1[5]), ADCA_CHARA(BANK1[5]), ARDUINO(BANK1[5]), 

    lcd_msg@c	PTR unsigned char  size(2) Largest target is 14
		 -> STR_5(CODE[2]), STR_4(CODE[2]), ADCAC_CHARC(BANK1[5]), ADCC_CHARC(BANK1[5]), 
		 -> STR_1(CODE[14]), ARDUINO(BANK1[5]), 


Critical Paths under _main in COMMON

    _inicializacion->_lcd_cmd
    _ADC->___awmod
    _ADC->___xxtofl
    _ADC->_itoa
    _lcd_msg->_lcd_dwr
    _lcd_dwr->_lcd_lat
    _lcd_dwr->_lcd_ready
    _lcd_cmd->_lcd_lat
    _lcd_cmd->_lcd_ready
    _itoa->_utoa
    _utoa->___lwdiv
    ___flmul->___xxtofl
    ___fldiv->___xxtofl
    ___awmod->___awdiv

Critical Paths under _main in BANK0

    _main->_ADC
    _ADC->___fldiv
    _itoa->_utoa
    ___fltol->___flmul
    ___fldiv->___flmul

Critical Paths under _main in BANK1

    None.

Critical Paths under _main in BANK3

    None.

Critical Paths under _main in BANK2

    None.

Call Graph Tables:

 ---------------------------------------------------------------------------------
 (Depth) Function   	        Calls       Base Space   Used Autos Params    Refs
 ---------------------------------------------------------------------------------
 (0) _main                                                 0     0      0   11603
                                _ADC
                     _inicializacion
 ---------------------------------------------------------------------------------
 (1) _inicializacion                                       0     0      0      22
                            _lcd_cmd
 ---------------------------------------------------------------------------------
 (1) _ADC                                                  4     4      0   11581
                                             52 BANK0      4     4      0
                            ___awdiv
                            ___awmod
                            ___fldiv
                            ___flmul
                            ___fltol
                           ___xxtofl
                               _itoa
                            _lcd_cmd
                            _lcd_msg
                             _strcat
                             _strcpy
 ---------------------------------------------------------------------------------
 (3) _strcpy                                               4     3      1     293
                                              0 COMMON     4     3      1
 ---------------------------------------------------------------------------------
 (2) _strcat                                               4     3      1     752
                                              0 COMMON     4     3      1
 ---------------------------------------------------------------------------------
 (2) _lcd_msg                                              2     0      2     523
                                              3 COMMON     2     0      2
                            _lcd_dwr
 ---------------------------------------------------------------------------------
 (3) _lcd_dwr                                              1     1      0      22
                                              2 COMMON     1     1      0
                            _lcd_lat
                          _lcd_ready
 ---------------------------------------------------------------------------------
 (2) _lcd_cmd                                              1     1      0      22
                                              2 COMMON     1     1      0
                            _lcd_lat
                          _lcd_ready
 ---------------------------------------------------------------------------------
 (3) _lcd_ready                                            2     2      0       0
                                              0 COMMON     2     2      0
 ---------------------------------------------------------------------------------
 (3) _lcd_lat                                              2     2      0       0
                                              0 COMMON     2     2      0
 ---------------------------------------------------------------------------------
 (2) _itoa                                                 7     3      4    2722
                                             13 COMMON     1     1      0
                                              4 BANK0      6     2      4
                               _utoa
 ---------------------------------------------------------------------------------
 (3) _utoa                                                 9     5      4    1264
                                              8 COMMON     5     1      4
                                              0 BANK0      4     4      0
                            ___lwdiv
                            ___lwmod
 ---------------------------------------------------------------------------------
 (4) ___lwmod                                              6     2      4     311
                                              0 COMMON     6     2      4
 ---------------------------------------------------------------------------------
 (4) ___lwdiv                                              8     4      4     466
                                              0 COMMON     8     4      4
 ---------------------------------------------------------------------------------
 (2) ___xxtofl                                            14    10      4     474
                                              0 COMMON    14    10      4
 ---------------------------------------------------------------------------------
 (2) ___fltol                                             11     7      4     381
                                             26 BANK0     11     7      4
                            ___flmul (ARG)
 ---------------------------------------------------------------------------------
 (2) ___flmul                                             26    18      8    2873
                                              0 BANK0     26    18      8
                          __Umul8_16
                           ___xxtofl (ARG)
 ---------------------------------------------------------------------------------
 (3) __Umul8_16                                            9     7      2     799
                                              0 COMMON     9     7      2
 ---------------------------------------------------------------------------------
 (2) ___fldiv                                             26    18      8    1425
                                             26 BANK0     26    18      8
                            ___flmul (ARG)
                           ___xxtofl (ARG)
 ---------------------------------------------------------------------------------
 (2) ___awmod                                              7     3      4    1208
                                              9 COMMON     5     1      4
                                              0 BANK0      2     2      0
                            ___awdiv (ARG)
 ---------------------------------------------------------------------------------
 (2) ___awdiv                                              9     5      4     908
                                              0 COMMON     9     5      4
 ---------------------------------------------------------------------------------
 Estimated maximum stack depth 4
 ---------------------------------------------------------------------------------

 Call Graph Graphs:

 _main (ROOT)
   _ADC
     ___awdiv
     ___awmod
       ___awdiv (ARG)
     ___fldiv
       ___flmul (ARG)
         __Umul8_16
         ___xxtofl (ARG)
       ___xxtofl (ARG)
     ___flmul
       __Umul8_16
       ___xxtofl (ARG)
     ___fltol
       ___flmul (ARG)
         __Umul8_16
         ___xxtofl (ARG)
     ___xxtofl
     _itoa
       _utoa
         ___lwdiv
         ___lwmod
     _lcd_cmd
       _lcd_lat
       _lcd_ready
     _lcd_msg
       _lcd_dwr
         _lcd_lat
         _lcd_ready
     _strcat
     _strcpy
   _inicializacion
     _lcd_cmd
       _lcd_lat
       _lcd_ready

 Address spaces:
Name               Size   Autos  Total    Cost      Usage
BITCOMMON            E      0       0       0        0.0%
EEDATA             100      0       0       0        0.0%
NULL                 0      0       0       0        0.0%
CODE                 0      0       0       0        0.0%
COMMON               E      E       E       1      100.0%
BITSFR0              0      0       0       1        0.0%
SFR0                 0      0       0       1        0.0%
BITSFR1              0      0       0       2        0.0%
SFR1                 0      0       0       2        0.0%
STACK                0      0       0       2        0.0%
ABS                  0      0      91       3        0.0%
BITBANK0            50      0       0       4        0.0%
BITSFR3              0      0       0       4        0.0%
SFR3                 0      0       0       4        0.0%
BANK0               50     38      4E       5       97.5%
BITSFR2              0      0       0       5        0.0%
SFR2                 0      0       0       5        0.0%
BITBANK1            50      0       0       6        0.0%
BANK1               50      0      35       7       66.3%
BITBANK3            60      0       0       8        0.0%
BANK3               60      0       0       9        0.0%
BITBANK2            60      0       0      10        0.0%
BANK2               60      0       0      11        0.0%
DATA                 0      0      91      12        0.0%


Microchip Technology PIC Macro Assembler V2.10 build 88905656 
Symbol Table                                                                                   Fri Feb 14 16:04:15 2020

            ___fldiv@aexp 0053              ___fldiv@bexp 0052                         pc 0002  
            ___fldiv@sign 004B               __CFG_CP$OFF 0000                        l63 0C5F  
                      l55 0B83                        l72 0C0F                        l58 0B71  
                      l66 0015                        l75 0BA2                        _PI 005A  
            ___awdiv@sign 0076                        fsr 0004       __Umul8_16@word_mpld 0076  
                     l150 030B                       _DC1 006A                       _DC2 0062  
                     l145 0190                       l147 01B3                       _ADC 0190  
                     l409 0D49                       l515 0059                       l436 00C0  
                     l429 00D5                       l525 0CEE                       l614 0FE3  
                     l439 00D5                       l616 0FF3                       l608 0F71  
                     l720 0C36                       l632 07EA                       l714 0BC3  
                     l396 0DB0                       l644 07DE                       l708 0C88  
                     l718 0C24                       l638 0756                       l670 00F8  
                     l592 0E7F                       l672 018F                       l594 0FFF  
                     l683 0159                       l691 0BE9                       l684 0165  
                     l676 013D                       l697 0E0B                       l699 0E22  
                     _RC4 003C                       _RC5 003D                       _RC6 003E  
            __CFG_CPD$OFF 0000                       _plc 0058                       fsr0 0004  
                     indf 0000              ___awmod@sign 0021              ___flmul@aexp 0032  
            ___flmul@bexp 0033              ___flmul@sign 002D              ___flmul@temp 0038  
            ___flmul@prod 0034                      ?_ADC 0070              __CFG_LVP$OFF 0000  
            ___fltol@exp1 0044                      l2000 0514                      l2010 05B1  
                    l2002 0531                      l2020 0614                      l2012 05BA  
                    l2004 054D                      l2100 0100                      l2030 06B4  
                    l2022 062D                      l2014 05CA                      l2006 0579  
                    l2110 0122                      l2040 0722                      l2032 06DA  
                    l2024 064A                      l2016 05E7                      l2008 0595  
                    l2120 0153                      l2112 0126                      l2104 0109  
                    l2200 03B7                      l2050 073A                      l2042 0726  
                    l2034 0702                      l2026 0677                      l2018 05F7  
                    l2130 0186                      l2122 015D                      l2114 0134  
                    l2106 010E                      l2210 0425                      l2202 03C5  
                    l2060 075B                      l2052 073B                      l2044 0727  
                    l2036 070B                      l2028 0687                      l2132 0187  
                    l2124 0167                      l2116 0144                      l2108 011B  
                    l2220 045B                      l2212 0431                      l2204 03E7  
                    l2140 0196                      l2062 0760                      l2070 0791  
                    l2054 073F                      l2046 0730                      l2038 0719  
                    l2126 017D                      l2118 014F                      l2222 0464  
                    l2214 043D                      l2206 03F5                      l2150 01A5  
                    l2142 0197                      l2230 0C89                      l1600 0C11  
                    l2080 07C4                      l2072 079E                      l2064 076E  
                    l2056 0753                      l2048 0736                      l2128 0182  
                    l1520 0C3F                      l2224 046D                      l2216 0449  
                    l2208 0417                      l2160 01BB                      l2152 01AD  
                    l2144 019A                      l2136 0B84                      l2240 0CA4  
                    l2232 0C8D                      l1610 0C32                      l1602 0C13  
                    l2082 07D2                      l2074 07A9                      l2066 0772  
                    l1530 0C53                      l1522 0C40                      l2226 0476  
                    l2218 0455                      l2170 028F                      l2162 0214  
                    l2154 01B1                      l2146 019B                      l2138 0190  
                    l2242 0CA5                      l2234 0C8E                      l1700 0D56  
                    l1604 0C1A                      l2084 07D6                      l2076 07B8  
                    l2068 078B                      l2092 00D7                      l1620 0DCF  
                    l1540 0B6E                      l1532 0C54                      l1524 0C41  
                    l1516 0C37                      l2228 047F                      l2180 02E5  
                    l2172 029D                      l2164 024C                      l2156 01B2  
                    l2148 019C                      l2244 0CA6                      l2236 0C9D  
                    l1710 0D6B                      l1702 0D5A                      l1606 0C1E  
                    l2086 07D7                      l2078 07C2                      l2094 00DC  
                    l1550 0028                      l1542 0016                      l1630 0DFF  
                    l1622 0DD5                      l1614 0DB4                      l1534 0C5C  
                    l1526 0C42                      l1518 0C3B                      l2190 030A  
                    l2182 02F1                      l2174 02BF                      l2166 025F  
                    l2158 01B7                      l2246 0CA7                      l2238 0CA3  
                    l1720 0D8E                      l1712 0D6E                      l1704 0D5F  
                    l1608 0C2D                      l2088 07E2                      l2096 00E0  
                    l1560 0048                      l1552 002C                      l1544 0018  
                    l1640 0E1E                      l1632 0E07                      l1624 0DD9  
                    l1616 0DB8                      l1536 0B63                      l1528 0C4A  
                    l2192 030F                      l2184 02FD                      l2176 02CD  
                    l2168 026D                      l2248 0CAC                      l1730 0DA7  
                    l1722 0D94                      l1714 0D75                      l1706 0D63  
                    l1810 0E23                      l2098 00F0                      l1562 004F  
                    l1554 0030                      l1546 001E                      l1570 0CBB  
                    l1634 0E0F                      l1626 0DDB                      l1618 0DCB  
                    l1538 0B66                      l1650 0B7D                      l2194 0313  
                    l2186 0303                      l2178 02D9                      l1732 0DAC  
                    l1724 0D95                      l1716 0D79                      l1708 0D65  
                    l1740 0CF6                      l1900 0F3D                      l1820 0E3A  
                    l1812 0E2A                      l1804 00B5                      l1556 0041  
                    l1548 0021                      l1564 0055                      l1580 0CD7  
                    l1572 0CBE                      l1636 0E16                      l1628 0DEE  
                    l1652 0B7E                      l1644 0B73                      l1660 0BFF  
                    l2196 036C                      l2188 0309                      l1726 0D9C  
                    l1718 0D7D                      l1750 0D0C                      l1742 0CFB  
                    l1910 0F55                      l1902 0F41                      l1830 0E52  
                    l1822 0E3F                      l1814 0E30                      l1806 00C5  
                    l1558 0047                      l1582 0CDD                      l1574 0CC5  
                    l1638 0E18                      l1670 0BD6                      l1662 0BC7  
                    l1646 0B78                      l1590 0005                      l1654 0BEA  
                    l2198 03A4                      l1728 0DA2                      l1760 0D28  
                    l1752 0D0F                      l1744 0CFD                      l1736 0CEF  
                    l1920 0F76                      l1912 0F56                      l1904 0F42  
                    l1840 0E67                      l1832 0E57                      l1824 0E47  
                    l1816 0E34                      l1808 00CA                      l1584 0CE4  
                    l1576 0CC9                      l1568 0CB5                      l1672 0BDB  
                    l1664 0BC7                      l1648 0B7C                      l1592 000A  
                    l1656 0BEB                      l1680 0C6A                      l1770 0D45  
                    l1762 0D2E                      l1754 0D16                      l1746 0D01  
                    l1738 0CF2                      l1922 0F7B                      l1930 0FAC  
                    l1914 0F5A                      l1906 0F4B                      l1850 0E87  
                    l1842 0E6C                      l1834 0E5D                      l1826 0E48  
                    l1818 0E35                      l1578 0CCD                      l1586 0CEA  
                    l1666 0BCB                      l1594 000E                      l1658 0BF9  
                    l1682 0C73                      l1690 0BB1                      l1692 0D4A  
                    l1764 0D35                      l1756 0D1A                      l1748 0D06  
                    l1940 0FE2                      l1932 0FB9                      l1924 0F89  
                    l1916 0F6E                      l1908 0F51                      l1860 0EA5  
                    l1852 0E93                      l1844 0E74                      l1836 0E61  
                    l1828 0E4A                      l1780 0070                      l1668 0BD2  
                    l1596 000F                      l1684 0C7B                      l1676 0C61  
                    l1694 0D4B                      l1758 0D1E                      l1766 0D3B  
                    l1942 0FE9                      l1934 0FC7                      l1926 0F8D  
                    l1870 0ED0                      l1854 0E97                      l1846 0E75  
                    l1838 0E62                      l1790 0094                      l1782 0085  
                    l1774 005A                      l1598 0010                      l1678 0C66  
                    l1686 0BA4                      l1696 0D4F                      l1768 0D40  
                    l1944 0FED                      l1936 0FD6                      l1928 0FA6  
                    l1880 0EF5                      l1872 0ED8                      l1864 0EAE  
                    l1848 0E77                      l1960 049C                      l1952 048A  
                    l1784 0086                      l1776 0067                      l1688 0BA9  
                    l1698 0D54                      l1946 0FEF                      l1938 0FDA  
                    l1890 0F20                      l1882 0EF6                      l1874 0EDA  
                    l1866 0EC0                      l1858 0EA0                      l1970 04B8  
                    l1962 04A1                      l1954 0491                      l1786 008E  
                    l1876 0EDF                      l1884 0EFF                      l1892 0F24  
                    l1868 0EC8                      l1980 04CD                      l1972 04BD  
                    l1964 04A6                      l1956 0497                      l1796 009C  
                    l1788 0090                      l1894 0F2A                      l1886 0F11  
                    l1878 0EF1                      l1990 04E9                      l1982 04D2  
                    l1974 04C3                      l1966 04AE                      l1958 049B  
                    l1798 00AE                      l1896 0F32                      l1888 0F12  
                    l1992 04EE                      l1984 04DA                      l1976 04C7  
                    l1968 04B0                      l1898 0F34                      l1986 04DC  
                    l1978 04C8                      l1996 04F7                      l1988 04E4  
                    l1998 0507                      STR_1 0810                      STR_2 0820  
                    STR_3 0820                      STR_4 081E                      STR_5 081E  
                    u2100 0F55                      u2020 0EF5                      u2101 0F54  
                    u2021 0EF4                      u2005 0EE1                      u2110 0F5A  
                    u2111 0F59                      u2015 0EEA                      u2120 0F6E  
                    u2040 0F11                      u2200 049B                      u1400 0030  
                    u2121 0F6D                      u2041 0F10                      u2201 049A  
                    u1401 002F                      u2130 0F75                      u2050 0F2A  
                    u2210 04A1                      u2131 0F74                      u2051 0F29  
                    u2035 0EF8                      u2211 04A0                      u2140 0F7B  
                    u2060 0F32                      u2220 04A6                      u1420 0041  
                    u1500 0CEA                      u2141 0F7A                      u2061 0F31  
                    u2045 0F0D                      u2301 0587                      u2221 04A5  
                    u1421 0040                      u1501 0CE9                      u2150 0F8D  
                    u1510 0C1E                      u2302 058E                      u2230 04C7  
                    u2151 0F8C                      u1511 0C1D                      u2311 05A3  
                    u2303 0595                      u2231 04C6                      u1415 0031  
                    u2160 0F9C                      u2080 0F41                      u2312 05AA  
                    u2240 04CD                      u1440 0055                      u1600 0C88  
                    u2081 0F40                      u2401 06CC                      u2313 05B1  
                    u2241 04CC                      u1441 0054                      u1425 003D  
                    u1601 0C87                      u2170 0FB9                      u1530 0C32  
                    u2410 06E8                      u2402 06D3                      u2250 04D2  
                    u1450 0CBB                      u1370 0C53                      u1610 0BC3  
                    u2171 0FB8                      u2075 0F36                      u1531 0C31  
                    u2403 06DA                      u2331 05D9                      u2251 04D1  
                    u1435 0049                      u1451 0CBA                      u1371 0C52  
                    u1611 0BC2                      u1700 0DA2                      u1620 0D4F  
                    u2180 0FD6                      u2500 075A                      u2332 05E0  
                    u2260 04E9                      u1380 001E                      u1540 0DD5  
                    u1701 0DA1                      u1621 0D4E                      u2181 0FD5  
                    u2165 0F97                      u1525 0C25                      u2501 0759  
                    u2421 06F4                      u2341 0606                      u2333 05E7  
                    u2325 05B3                      u2261 04E8                      u1381 001D  
                    u1541 0DD4                      u1710 0DA7                      u1630 0D5A  
                    u2190 0FED                      u2510 0760                      u2422 06FB  
                    u2342 060D                      u2270 04EE                      u1470 0CCD  
                    u1550 0E07                      u1711 0DA6                      u1631 0D59  
                    u2191 0FEC                      u2175 0FB5                      u2095 0F44  
                    u2511 075F                      u2423 0702                      u2415 06E3  
                    u2343 0614                      u2271 04ED                      u1471 0CCC  
                    u1551 0E06                      u1640 0D6B                      u1800 0D40  
                    u1720 0CF6                      u2520 0772                      u1480 0CD7  
                    u1560 0E1E                      u1641 0D6A                      u1801 0D3F  
                    u1721 0CF5                      u2185 0FD2                      u2521 0771  
                    u2361 063C                      u2281 053F                      u1481 0CD6  
                    u1465 0CBF                      u1561 0E1D                      u1730 0D01  
                    u2530 0781                      u2450 0726                      u2362 0643  
                    u2282 0546                      u1810 0067                      u2610 0121  
                    u1570 0C0F                      u1731 0D00                      u2451 0725  
                    u2435 0704                      u2371 0669                      u2363 064A  
                    u2355 0616                      u2291 055B                      u2283 054D  
                    u1811 0066                      u2611 0120                      u1395 0022  
                    u1571 0C0E                      u1660 0D7D                      u1740 0D0C  
                    u2540 079E                      u2372 0670                      u2292 0562  
                    u1900 00CA                      u1820 007E                      u2700 0186  
                    u1580 0BCB                      u1661 0D7C                      u1741 0D0B  
                    u2541 079D                      u2445 071B                      u2381 0696  
                    u2373 0677                      u2293 0569                      u1901 00C9  
                    u2701 0185                      u2605 0113                      u1485 0CD3  
                    u1581 0BCA                      u1910 0E34                      u2550 07B8  
                    u2470 073A                      u2390 06C0                      u2382 069D  
                    u1830 0094                      u2630 0143                      u1590 0C72  
                    u2710 01B7                      u1655 0D6F                      u1911 0E33  
                    u2551 07B7                      u2535 077C                      u2471 0739  
                    u2383 06A4                      u1831 0093                      u2631 0142  
                    u1495 0CDE                      u1591 0C71                      u2711 01B6  
                    u1680 0D8E                      u1760 0D1E                      u1920 0E3A  
                    u2560 07D6                      u2480 073F                      u1840 009B  
                    u2720 030F                      u1681 0D8D                      u1761 0D1D  
                    u1921 0E39                      u2561 07D5                      u2545 079A  
                    u2481 073E                      u2465 0729                      u1841 009A  
                    u1825 0079                      u2625 0135                      u2721 030E  
                    u1770 0D28                      u1930 0E3F                      u2490 0753  
                    u2650 0153                      u2570 00DC                      u1675 0D7E  
                    u1771 0D27                      u1755 0D10                      u1931 0E3E  
                    u2555 07B4                      u2491 0752                      u2395 06BB  
                    u2651 0152                      u2571 00DB                      u1940 0E61  
                    u1860 00AD                      u2660 0159                      u2580 00E0  
                    u1685 0D8A                      u1941 0E60                      u1861 00AC  
                    u2661 0158                      u2645 0148                      u2581 00DF  
                    u1790 0D3B                      u1950 0E67                      u1870 00B4  
                    u2670 015D                      u2590 0100                      u1695 0D96  
                    u1791 0D3A                      u1775 0D24                      u1951 0E66  
                    u1871 00B3                      u1855 009D                      u2671 015C  
                    u2591 00FF                      u1960 0E6C                      u2680 0172  
                    u1785 0D2F                      u1961 0E6B                      u2737 01A9  
                    u1970 0E87                      u1890 00C5                      u2690 0182  
                    u1971 0E86                      u1891 00C4                      u2691 0181  
                    u2747 0301                      u1980 0EA5                      u1981 0EA4  
                    u1885 00B7                      u2685 016D                      u2757 0C46  
                    u1990 0EDF                      u1991 0EDE                      u2767 0C58  
                    u2777 0B6A              __CFG_WRT$OFF 0000                      _main 0C89  
                    _itoa 0BC4                      btemp 007E                      _utoa 0DB1  
                    start 0000             __CFG_IESO$OFF 0000           ___fldiv@new_exp 004C  
                   ??_ADC 0054             ___fltol@sign1 0043                     ?_main 0070  
                   _ADC_A 0064                     _ADC_B 005C           __end_of___fldiv 1000  
                   ?_itoa 0024           __end_of___awdiv 0DB1             __CFG_WDTE$OFF 0000  
         __end_of___awmod 0D4A           __end_of___flmul 07EB           __end_of___fltol 00D6  
                   _ANSEL 0188                     ?_utoa 0078           ___awdiv@divisor 0070  
         __end_of___lwdiv 005A           __end_of___lwmod 0CEF           ___awdiv@counter 0075  
                   _PORTA 0005                     _PORTB 0006                     _PORTC 0007  
                   _PORTD 0008                     _PORTE 0009                     _TRISA 0085  
                   _TRISB 0086                     _TRISC 0087                     _TRISD 0088  
                   _TRISE 0089            __CFG_FCMEN$OFF 0000           __end_of_lcd_cmd 0B84  
         __end_of_lcd_lat 0B72           __end_of_lcd_dwr 0016           __end_of_lcd_msg 0C10  
          __CFG_BOREN$OFF 0000                     pclath 000A                     utoa@c 0022  
                   utoa@v 0020                     status 0003                     wtemp0 007E  
          __CFG_MCLRE$OFF 0000           __initialization 07EB              __end_of_main 0CB5  
            __end_of_itoa 0BEA              __end_of_utoa 0E23                    ??_main 007E  
                  ??_itoa 007D                    ??_utoa 007C                    _ADRESH 001E  
        ___awdiv@dividend 0072                    _ANSELH 0189   __size_of_inicializacion 001F  
        __end_of___xxtofl 0190            __CFG_PWRTE$OFF 0000                 ??___fldiv 0042  
               ??___awdiv 0074                 ??___awmod 007D                 ??___flmul 0028  
               ??___fltol 003E                 ??___lwdiv 0074                 ??___lwmod 0074  
        ___awdiv@quotient 0077           ___awmod@divisor 0079           ___awmod@counter 0020  
               ??_lcd_cmd 0072                 ??_lcd_lat 0070                    _strcat 0C60  
               ??_lcd_dwr 0072                 ??_lcd_msg 0075                    _strcpy 0BA3  
      __size_of__Umul8_16 0027              ___xxtofl@arg 007A              ___xxtofl@exp 0079  
            ___xxtofl@val 0070   __end_of__initialization 07FC                ___fltol@f1 003A  
          __pcstackCOMMON 0070        __size_of_lcd_ready 0029                __pbssBANK0 0058  
              __pbssBANK1 00A0         __end_of__Umul8_16 0C37                __pmaintext 0C89  
                 _ADC_1_A 0068                   _ADC_1_B 0066                   _ADC_2_A 0060  
                 _ADC_2_B 005E                   _ARDUINO 00A8                   ?_strcat 0070  
                 ?_strcpy 0070                 ?___xxtofl 0070                __stringtab 0800  
          _inicializacion 0B84         __end_of_lcd_ready 0C60                   ___fldiv 0E23  
                 ___awdiv 0D4A                   ___awmod 0CEF                   ___flmul 048A  
                 ___fltol 005A                   ___lwdiv 0016                   ___lwmod 0CB5  
                 __ptext1 0B84                   __ptext2 0190                   __ptext3 0BA3  
                 __ptext4 0C60                   __ptext5 0BEA                   __ptext6 0004  
                 __ptext7 0B72                   __ptext8 0C37                   __ptext9 0B63  
                 _lcd_cmd 0B72                   _lcd_lat 0B63                   _lcd_dwr 0004  
                 _lcd_msg 0BEA              __size_of_ADC 02FA           __size_of_strcat 0029  
         __size_of_strcpy 0021                ??___xxtofl 0074          ___awmod@dividend 007B  
                 clrloop0 0B5C                   _voltage 00A4    __end_of_inicializacion 0BA3  
    end_of_initialization 07FC                   itoa@buf 0029                   itoa@val 0024  
             _ADCAA_CHARA 00BC               _ADCAB_CHARB 00B7               _ADCAC_CHARC 00B2  
                 utoa@buf 0023                   utoa@val 0078             ___xxtofl@sign 0078  
             ___fldiv@grs 004E               ___fldiv@rem 0047           ?_inicializacion 0070  
             ___flmul@grs 002E            __end_of_strcat 0C89            __end_of_strcpy 0BC4  
     start_initialization 07EB               __end_of_ADC 048A  __CFG_FOSC$INTRC_NOCLKOUT 0000  
               __Umul8_16 0C10                  ??_strcat 0071                  ??_strcpy 0071  
               ___fldiv@a 003A                 ___fldiv@b 003E                 ___flmul@a 0024  
               ___flmul@b 0020                 ___latbits 0002             __pcstackBANK0 0020  
       __size_of___xxtofl 00BA          ___lwdiv@dividend 0072                  ?___fldiv 003A  
                ?___awdiv 0070                  ?___awmod 0079                  ?___flmul 0020  
                ?___fltol 003A                ?__Umul8_16 0070                  ?___lwdiv 0070  
                ?___lwmod 0070                 _lcd_ready 0C37                 __pstrings 0800  
                ?_lcd_cmd 0070                  ?_lcd_lat 0070                  ?_lcd_dwr 0070  
                ?_lcd_msg 0073          ___lwdiv@quotient 0075        _analogic_digital_a 006D  
      _analogic_digital_b 006C                 clear_ram0 0B5B                  _POINTERA 00C1  
                _POINTERB 00AD                _ADCA_CHARA 00D0                _ADCB_CHARB 00CB  
              _ADCC_CHARC 00C6                ?_lcd_ready 0070                _ADCON0bits 001F  
             __stringbase 080F                _ADCON1bits 009F          ??_inicializacion 0073  
             ??__Umul8_16 0072          __size_of___fldiv 01DD          __size_of___awdiv 0067  
        __size_of___awmod 005B          __size_of___flmul 0361          __size_of___fltol 007C  
        __size_of___lwdiv 0044          __size_of___lwmod 003A        __end_of__stringtab 0810  
        __size_of_lcd_cmd 0012          __size_of_lcd_lat 000F          __size_of_lcd_dwr 0012  
        __size_of_lcd_msg 0026                  ___xxtofl 00D6                strcat@from 0070  
         ___lwdiv@divisor 0070           ___lwdiv@counter 0077                  __ptext10 0BC4  
                __ptext11 0DB1                  __ptext20 0D4A                  __ptext12 0CB5  
                __ptext13 0016                  __ptext14 00D6                  __ptext15 005A  
                __ptext16 048A                  __ptext17 0C10                  __ptext18 0E23  
                __ptext19 0CEF         __CFG_BOR4V$BOR40V 0000                strcpy@from 0070  
           __size_of_main 002C             __size_of_itoa 0026             __size_of_utoa 0072  
                lcd_cmd@x 0072                  lcd_dwr@x 0072                  lcd_msg@c 0073  
             ??_lcd_ready 0070                  _voltageb 00A0                  itoa@base 0026  
        ___lwmod@dividend 0072                 stringcode 080A                _OSCCONbits 008F  
                utoa@base 007A    __Umul8_16@multiplicand 0070                  strcat@cp 0072  
                strcat@to 0073           ___lwmod@divisor 0070                  strcpy@cp 0072  
                strcpy@to 0073           ___lwmod@counter 0075                  stringdir 080A  
                stringtab 0800      __Umul8_16@multiplier 0078         __Umul8_16@product 0074  
